Microchip MPLAB XC8 Compiler V3.00

Linker command line:

-W-3 \
  --edf=C:\Program Files\Microchip\xc8\v3.00\pic\dat\20241204225717_en.msgs \
  -pivt0x8=08h -cn \
  -h+dist/default/production\dash-firmware.X.production.sym \
  --cmf=dist/default/production\dash-firmware.X.production.cmf -z \
  -Q18F47Q84 -oC:\Users\Adam\AppData\Local\Temp\xcAs168g.\driver_tmp_3.o \
  --defsym=__MPLAB_BUILD=1 --fixupoverflow=error \
  -Mdist/default/production/dash-firmware.X.production.map \
  --md=C:\Users\Adam\AppData\Local\Temp\xcAs168g.\driver_tmp_0.dat -E1 \
  -ver=XC8 Compiler -ACODE=00h-01FFFFh -ACONST=00h-01FFFFh \
  -ASMALLCONST=04000h-040FFhx192,014000h-0140FFhx192 \
  -AMEDIUMCONST=04000h-0FFFFh,014000h-01FFFFh -ACOMRAM=0501h-055Fh \
  -AABS1=0500h-036FFh -ABIGRAM=0501h-036FFh \
  -ARAM=0560h-05FFh,0600h-06FFhx49 -ABANK5=0560h-05FFh -ABANK6=0600h-06FFh \
  -ABANK7=0700h-07FFh -ABANK8=0800h-08FFh -ABANK9=0900h-09FFh \
  -ABANK10=0A00h-0AFFh -ABANK11=0B00h-0BFFh -ABANK12=0C00h-0CFFh \
  -ABANK13=0D00h-0DFFh -ABANK14=0E00h-0EFFh -ABANK15=0F00h-0FFFh \
  -ABANK16=01000h-010FFh -ABANK17=01100h-011FFh -ABANK18=01200h-012FFh \
  -ABANK19=01300h-013FFh -ABANK20=01400h-014FFh -ABANK21=01500h-015FFh \
  -ABANK22=01600h-016FFh -ABANK23=01700h-017FFh -ABANK24=01800h-018FFh \
  -ABANK25=01900h-019FFh -ABANK26=01A00h-01AFFh -ABANK27=01B00h-01BFFh \
  -ABANK28=01C00h-01CFFh -ABANK29=01D00h-01DFFh -ABANK30=01E00h-01EFFh \
  -ABANK31=01F00h-01FFFh -ABANK32=02000h-020FFh -ABANK33=02100h-021FFh \
  -ABANK34=02200h-022FFh -ABANK35=02300h-023FFh -ABANK36=02400h-024FFh \
  -ABANK37=02500h-025FFh -ABANK38=02600h-026FFh -ABANK39=02700h-027FFh \
  -ABANK40=02800h-028FFh -ABANK41=02900h-029FFh -ABANK42=02A00h-02AFFh \
  -ABANK43=02B00h-02BFFh -ABANK44=02C00h-02CFFh -ABANK45=02D00h-02DFFh \
  -ABANK46=02E00h-02EFFh -ABANK47=02F00h-02FFFh -ABANK48=03000h-030FFh \
  -ABANK49=03100h-031FFh -ABANK50=03200h-032FFh -ABANK51=03300h-033FFh \
  -ABANK52=03400h-034FFh -ABANK53=03500h-035FFh -ABANK54=03600h-036FFh \
  -ASFR=00h-0FFhx4,0400h-045Fh,0460h-04FFh,03700h-037FFhx9 \
  -ABIGSFR=00h-04FFh,03700h-03FFFh -ACONFIG=0300000h-0300023h \
  -AIDLOC=0200000h-020003Fh -AEEDATA=0380000h-03803FFh -peeprom_data=EEDATA \
  -preset_vec=00h -ppowerup=CODE,init -pramtop=04000h \
  -psmallconst=SMALLCONST -pmediumconst=MEDIUMCONST -pconst=CONST \
  -AFARRAM=00h-00h \
  -prdata=COMRAM,nvrram=COMRAM,nvbit=COMRAM,rbss=COMRAM,rbit=COMRAM \
  -pfarbss=FARRAM,fardata=FARRAM,nvFARRAM=FARRAM \
  -pintsave_regs=BIGRAM,bigbss=BIGRAM,bigdata=BIGRAM -pbss=RAM \
  -pidata=CODE,irdata=CODE,ibigdata=CODE,ifardata=CODE -prparam=COMRAM \
  C:\Users\Adam\AppData\Local\Temp\xcAs168g.\driver_tmp_14.o \
  dist/default/production\dash-firmware.X.production.o 

Object code version is 3.11

Machine type is 18F47Q84



                Name                               Link     Load   Length Selector   Space Scale
C:\Users\Adam\AppData\Local\Temp\xcAs168g.\driver_tmp_14.o
                config                           300000   300000       1F        0       4
                init                                 1A       1A        4        4       0
                reset_vec                             0        0        4        0       0
dist/default/production\dash-firmware.X.production.o
                config                           300000   300000       1F        0       4
                mediumconst                        FD52     FD52      2AE     7EA9       0
                ivt0x8                                8        8       12        4       0
                text237                           1DF1A    1DF1A       16     8000       0
                text236                           1DF04    1DF04       16     8000       0
                text235                           1DD7E    1DD7E       1A     8000       0
                text234                           1DE10    1DE10       18     8000       0
                text233                           1E0BA    1E0BA        A     8000       0
                text232                           1B128    1B128       D6     8000       0
                text231                           1D102    1D102       50     8000       0
                text230                           18AC2    18AC2      22A     8000       0
                text229                           1D4DE    1D4DE       3C     8000       0
                text228                           1C3E0    1C3E0       92     8000       0
                text227                           1B922    1B922       C2     8000       0
                text226                           1BE2A    1BE2A       AE     8000       0
                text225                           17560    17560      390     8000       0
                text224                           1BF84    1BF84       AA     8000       0
                text223                           1A994    1A994      104     8000       0
                text222                           16DA8    16DA8      426     8000       0
                text221                           1D6AC    1D6AC       38     8000       0
                text220                           164CA    164CA      4B6     8000       0
                text219                           1D358    1D358       46     8000       0
                text218                           1A88E    1A88E      106     8000       0
                text217                           1AB98    1AB98       FE     8000       0
                text216                           18F02    18F02      212     8000       0
                text215                           1DEEE    1DEEE       16     8000       0
                text214                           1E0B0    1E0B0        A     8000       0
                text213                           1B6D2    1B6D2       CA     8000       0
                text212                           1D39E    1D39E       44     8000       0
                text211                           1D786    1D786       36     8000       0
                text210                           1BB5E    1BB5E       BA     8000       0
                text209                           1D4A2    1D4A2       3C     8000       0
                text208                           14168    14168      CC8     8000       0
                text207                           1B050    1B050       D8     8000       0
                text206                           19D3C    19D3C      186     8000       0
                text205                           1A1A4    1A1A4      162     8000       0
                text204                           1D95C    1D95C       34     8000       0
                text203                           18128    18128      28C     8000       0
                text202                           1CF62    1CF62       56     8000       0
                text201                           12564    12564      E0E     8000       0
                text200                           194C2    194C2      1CC     8000       0
                text199                           1B606    1B606       CC     8000       0
                text198                           19A0A    19A0A      1AA     8000       0
                text197                           1AE84    1AE84       F0     8000       0
                text196                           1B2D0    1B2D0       D0     8000       0
                text195                           192EC    192EC      1D6     8000       0
                text194                           183B4    183B4      26A     8000       0
                text193                           10000    10000     12B6     8000       0
                text192                           1CDE6    1CDE6       66     8000       0
                text191                           1DBFA    1DBFA       28     8000       0
                text190                           1C69E    1C69E       88     8000       0
                text189                           1E134    1E134        6     F076       0
                text188                           1E12E    1E12E        6     F076       0
                text187                           1E158    1E158        2     F0A9       0
                text186                           1AC96    1AC96       FC     8000       0
                text185                           1D750    1D750       36     8000       0
                text184                           1DED8    1DED8       16     8000       0
                text183                           1DA82    1DA82       2E     8000       0
                text182                           1E156    1E156        2     F0A9       0
                text181                           1D9F4    1D9F4       32     8000       0
                text180                           1D602    1D602       3A     8000       0
                text179                           1CC48    1CC48       6A     8000       0
                text178                           1BC18    1BC18       B4     8000       0
                text177                           1DDF8    1DDF8       18     8000       0
                text176                           1E154    1E154        2     F0A9       0
                text175                           1C928    1C928       7A     8000       0
                text174                           1D9C2    1D9C2       32     8000       0
                text173                           1DB58    1DB58       2A     8000       0
                text172                           1D5C8    1D5C8       3A     8000       0
                text171                           1E152    1E152        2     F0A9       0
                text170                           1DDE0    1DDE0       18     8000       0
                text169                           1D990    1D990       32     8000       0
                text168                           1DB2E    1DB2E       2A     8000       0
                text167                           1DF58    1DF58       14     8000       0
                text166                           1B860    1B860       C2     8000       0
                text165                           1DDC8    1DDC8       18     8000       0
                text164                           1E128    1E128        6     F076       0
                text163                           1E0A6    1E0A6        A     8000       0
                text162                           1DD62    1DD62       1C     8000       0
                text161                           1DA54    1DA54       2E     8000       0
                text160                           1E122    1E122        6     F076       0
                text159                           1E11C    1E11C        6     F076       0
                text158                           1E116    1E116        6     F076       0
                text157                           1DEC2    1DEC2       16     8000       0
                text156                           1DEAC    1DEAC       16     8000       0
                text155                           1DE96    1DE96       16     8000       0
                text154                           1D0B0    1D0B0       52     8000       0
                text153                           1DC22    1DC22       24     8000       0
                text152                           1C726    1C726       84     8000       0
                text151                           1DD46    1DD46       1C     8000       0
                text150                           1D928    1D928       34     8000       0
                text149                           1D8F4    1D8F4       34     8000       0
                text148                           1D8C0    1D8C0       34     8000       0
                text147                           1D88C    1D88C       34     8000       0
                text146                           1D858    1D858       34     8000       0
                text145                           1D310    1D310       48     8000       0
                text144                           1D824    1D824       34     8000       0
                text143                           1D7F0    1D7F0       34     8000       0
                text142                           1D7BC    1D7BC       34     8000       0
                text141                           1D2C8    1D2C8       48     8000       0
                text140                           1E14A    1E14A        4     F076       0
                text139                           1E146    1E146        4     F076       0
                text138                           1E09C    1E09C        A     8000       0
                text137                           1E110    1E110        6     F076       0
                text136                           1E10A    1E10A        6     F076       0
                text135                           1E070    1E070        E     8000       0
                text134                           1E092    1E092        A     8000       0
                text133                           1E104    1E104        6     F076       0
                text132                           1DE80    1DE80       16     8000       0
                text131                           1E0FE    1E0FE        6     F076       0
                text130                           1E0F8    1E0F8        6     F076       0
                text129                           1E0F2    1E0F2        6     F076       0
                text128                           1E0EC    1E0EC        6     F076       0
                text127                           1DE6A    1DE6A       16     8000       0
                text126                           1DE54    1DE54       16     8000       0
                text125                           1E0DC    1E0DC        8     8000       0
                text124                           1E088    1E088        A     8000       0
                text123                           1DA26    1DA26       2E     8000       0
                text122                           1DE3E    1DE3E       16     8000       0
                text121                           1A442    1A442      128     8000       0
                text120                           1C21C    1C21C       98     8000       0
                text119                           1C8AA    1C8AA       7E     8000       0
                text118                           1C17A    1C17A       A2     8000       0
                text117                           1E062    1E062        E     8000       0
                text116                           1E142    1E142        4     F076       0
                text115                           1E13E    1E13E        4     F076       0
                text114                           1DBD2    1DBD2       28     8000       0
                text113                           1E0D4    1E0D4        8     8000       0
                text112                           1E054    1E054        E     8000       0
                text111                           1E0CC    1E0CC        8     8000       0
                text110                           1E046    1E046        E     8000       0
                text109                           1CB02    1CB02       70     8000       0
                text108                           1C9A2    1C9A2       78     8000       0
                text107                           1DFC6    1DFC6       10     8000       0
                text106                           1CA90    1CA90       72     8000       0
                text105                           1CEB0    1CEB0       5A     8000       0
                text104                           1DD0C    1DD0C       1E     8000       0
                text103                           1D05E    1D05E       52     8000       0
                text102                           1E0C4    1E0C4        8     8000       0
                text101                           1DC8A    1DC8A       22     8000       0
                text100                           1C0D4    1C0D4       A6     8000       0
                text99                            1BD7C    1BD7C       AE     8000       0
                text98                            1DBAA    1DBAA       28     8000       0
                text97                            1A306    1A306      13C     8000       0
                text96                            1D3E2    1D3E2       42     8000       0
                text95                            1C82A    1C82A       80     8000       0
                text94                            1DC68    1DC68       22     8000       0
                text93                            1DD2A    1DD2A       1C     8000       0
                text92                            1D00C    1D00C       52     8000       0
                text91                            18886    18886      23C     8000       0
                text90                            1A56A    1A56A      116     8000       0
                text89                            1B53A    1B53A       CC     8000       0
                text88                            1CA1A    1CA1A       76     8000       0
                text87                            1B79C    1B79C       C4     8000       0
                text86                            1BCCC    1BCCC       B0     8000       0
                text85                            171CE    171CE      392     8000       0
                text84                            1BED8    1BED8       AC     8000       0
                text83                            1A788    1A788      106     8000       0
                text82                            16980    16980      428     8000       0
                text81                            1D58E    1D58E       3A     8000       0
                text80                            16012    16012      4B8     8000       0
                text79                            1D280    1D280       48     8000       0
                text78                            1A680    1A680      108     8000       0
                text77                            1AA98    1AA98      100     8000       0
                text76                            18CEC    18CEC      216     8000       0
                text75                            1DDB0    1DDB0       18     8000       0
                text74                            1E038    1E038        E     8000       0
                text73                            1B46E    1B46E       CC     8000       0
                text72                            1D238    1D238       48     8000       0
                text71                            1D554    1D554       3A     8000       0
                text70                            1B9E4    1B9E4       BE     8000       0
                text69                            1D464    1D464       3E     8000       0
                text68                            14E30    14E30      CA8     8000       0
                text67                            1AF74    1AF74       DC     8000       0
                text66                            19BB4    19BB4      188     8000       0
                text65                            1A040    1A040      164     8000       0
                text64                            1D71A    1D71A       36     8000       0
                text63                            17E9A    17E9A      28E     8000       0
                text62                            1CF0A    1CF0A       58     8000       0
                text61                            13372    13372      DF6     8000       0
                text60                            1968E    1968E      1C8     8000       0
                text59                            1B3A0    1B3A0       CE     8000       0
                text58                            19856    19856      1B4     8000       0
                text57                            1AD92    1AD92       F2     8000       0
                text56                            1B1FE    1B1FE       D2     8000       0
                text55                            19114    19114      1D8     8000       0
                text54                            1861E    1861E      268     8000       0
                text53                            112B6    112B6     12AE     8000       0
                text52                            1CD80    1CD80       66     8000       0
                text51                            1DB82    1DB82       28     8000       0
                text50                            17BCA    17BCA      2D0     8000       0
                text49                            1DFB4    1DFB4       12     8000       0
                text48                            1E07E    1E07E        A     8000       0
                text47                            1C34A    1C34A       96     8000       0
                text46                            1DFA2    1DFA2       12     8000       0
                text45                            1DC46    1DC46       22     8000       0
                text44                            1DB04    1DB04       2A     8000       0
                text43                            1DF90    1DF90       12     8000       0
                text42                            1CFB8    1CFB8       54     8000       0
                text41                            1DCEC    1DCEC       20     8000       0
                text40                            1E13A    1E13A        4     F076       0
                text39                            1DF7E    1DF7E       12     8000       0
                text38                            1E02A    1E02A        E     8000       0
                text37                            1C2B4    1C2B4       96     8000       0
                text36                            1DE28    1DE28       16     8000       0
                text35                            1E01C    1E01C        E     8000       0
                text34                            1D1EE    1D1EE       4A     8000       0
                text33                            1E00E    1E00E        E     8000       0
                text32                            1D1A0    1D1A0       4E     8000       0
                text31                            1E000    1E000        E     8000       0
                text30                            1D152    1D152       4E     8000       0
                text29                            1DFF2    1DFF2        E     8000       0
                text28                            1DFE4    1DFE4        E     8000       0
                text27                            1DFD6    1DFD6        E     8000       0
                text26                            1CE4C    1CE4C       64     8000       0
                text25                            1DADA    1DADA       2A     8000       0
                text24                            1CBDE    1CBDE       6A     8000       0
                text23                            1C472    1C472       8E     8000       0
                text22                            1D674    1D674       38     8000       0
                text21                            1D424    1D424       40     8000       0
                text20                            1DCCC    1DCCC       20     8000       0
                text19                            1DF44    1DF44       14     8000       0
                text18                            1DCAC    1DCAC       20     8000       0
                text17                            1DF6C    1DF6C       12     8000       0
                text16                            1C614    1C614       8A     8000       0
                text15                            19EC2    19EC2      17E     8000       0
                text14                            1C02E    1C02E       A6     8000       0
                text13                            1CB72    1CB72       6C     8000       0
                text12                            1D51A    1D51A       3A     8000       0
                text11                            1BAA2    1BAA2       BC     8000       0
                text10                            1D63C    1D63C       38     8000       0
                text9                             178F0    178F0      2DA     8000       0
                text8                             1CD1A    1CD1A       66     8000       0
                text7                             1CCB2    1CCB2       68     8000       0
                text6                             1C58A    1C58A       8A     8000       0
                text5                             1DAB0    1DAB0       2A     8000       0
                text4                             1D6E4    1D6E4       36     8000       0
                text3                             1DD98    1DD98       18     8000       0
                text2                             1DF30    1DF30       14     8000       0
                text1                             1C7AA    1C7AA       80     8000       0
                text0                             15AD8    15AD8      53A     8000       0
                cstackCOMRAM                        501      501       5B      501       1
                cstackBANK5                         560      560       49      560       1
                cstackBANK6                         600      600       B8      600       1
                cstackBANK7                         76C      76C       13      700       1
                bssBANK8                            800      800       F0      800       1
                dataBANK7                           78E      78E        7      700       1
                bssBANK7                            700      700       6C      700       1
                bssBANK6                            6B8      6B8       39      600       1
                dataBANK5                           5EE      5EE        3      560       1
                bssBANK5                            5A9      5A9       45      560       1
                bssCOMRAM                           55C      55C        4      501       1
                cinit                             1C500    1C500       8A     8000       0
                nvBANK7                             77F      77F        F      700       1
                nvBANK6                             6F1      6F1        6      600       1
                idataBANK7                        1E0E4    1E0E4        7     8000       0
                idataBANK5                        1E14E    1E14E        3     F076       0

TOTAL           Name                               Link     Load   Length     Space
        CLASS   CODE           
                init                                 1A       1A        4         0
                reset_vec                             0        0        4         0
                ivt0x8                                8        8       12         0
                text237                           1DF1A    1DF1A       16         0
                text236                           1DF04    1DF04       16         0
                text235                           1DD7E    1DD7E       1A         0
                text234                           1DE10    1DE10       18         0
                text233                           1E0BA    1E0BA        A         0
                text232                           1B128    1B128       D6         0
                text231                           1D102    1D102       50         0
                text230                           18AC2    18AC2      22A         0
                text229                           1D4DE    1D4DE       3C         0
                text228                           1C3E0    1C3E0       92         0
                text227                           1B922    1B922       C2         0
                text226                           1BE2A    1BE2A       AE         0
                text225                           17560    17560      390         0
                text224                           1BF84    1BF84       AA         0
                text223                           1A994    1A994      104         0
                text222                           16DA8    16DA8      426         0
                text221                           1D6AC    1D6AC       38         0
                text220                           164CA    164CA      4B6         0
                text219                           1D358    1D358       46         0
                text218                           1A88E    1A88E      106         0
                text217                           1AB98    1AB98       FE         0
                text216                           18F02    18F02      212         0
                text215                           1DEEE    1DEEE       16         0
                text214                           1E0B0    1E0B0        A         0
                text213                           1B6D2    1B6D2       CA         0
                text212                           1D39E    1D39E       44         0
                text211                           1D786    1D786       36         0
                text210                           1BB5E    1BB5E       BA         0
                text209                           1D4A2    1D4A2       3C         0
                text208                           14168    14168      CC8         0
                text207                           1B050    1B050       D8         0
                text206                           19D3C    19D3C      186         0
                text205                           1A1A4    1A1A4      162         0
                text204                           1D95C    1D95C       34         0
                text203                           18128    18128      28C         0
                text202                           1CF62    1CF62       56         0
                text201                           12564    12564      E0E         0
                text200                           194C2    194C2      1CC         0
                text199                           1B606    1B606       CC         0
                text198                           19A0A    19A0A      1AA         0
                text197                           1AE84    1AE84       F0         0
                text196                           1B2D0    1B2D0       D0         0
                text195                           192EC    192EC      1D6         0
                text194                           183B4    183B4      26A         0
                text193                           10000    10000     12B6         0
                text192                           1CDE6    1CDE6       66         0
                text191                           1DBFA    1DBFA       28         0
                text190                           1C69E    1C69E       88         0
                text189                           1E134    1E134        6         0
                text188                           1E12E    1E12E        6         0
                text187                           1E158    1E158        2         0
                text186                           1AC96    1AC96       FC         0
                text185                           1D750    1D750       36         0
                text184                           1DED8    1DED8       16         0
                text183                           1DA82    1DA82       2E         0
                text182                           1E156    1E156        2         0
                text181                           1D9F4    1D9F4       32         0
                text180                           1D602    1D602       3A         0
                text179                           1CC48    1CC48       6A         0
                text178                           1BC18    1BC18       B4         0
                text177                           1DDF8    1DDF8       18         0
                text176                           1E154    1E154        2         0
                text175                           1C928    1C928       7A         0
                text174                           1D9C2    1D9C2       32         0
                text173                           1DB58    1DB58       2A         0
                text172                           1D5C8    1D5C8       3A         0
                text171                           1E152    1E152        2         0
                text170                           1DDE0    1DDE0       18         0
                text169                           1D990    1D990       32         0
                text168                           1DB2E    1DB2E       2A         0
                text167                           1DF58    1DF58       14         0
                text166                           1B860    1B860       C2         0
                text165                           1DDC8    1DDC8       18         0
                text164                           1E128    1E128        6         0
                text163                           1E0A6    1E0A6        A         0
                text162                           1DD62    1DD62       1C         0
                text161                           1DA54    1DA54       2E         0
                text160                           1E122    1E122        6         0
                text159                           1E11C    1E11C        6         0
                text158                           1E116    1E116        6         0
                text157                           1DEC2    1DEC2       16         0
                text156                           1DEAC    1DEAC       16         0
                text155                           1DE96    1DE96       16         0
                text154                           1D0B0    1D0B0       52         0
                text153                           1DC22    1DC22       24         0
                text152                           1C726    1C726       84         0
                text151                           1DD46    1DD46       1C         0
                text150                           1D928    1D928       34         0
                text149                           1D8F4    1D8F4       34         0
                text148                           1D8C0    1D8C0       34         0
                text147                           1D88C    1D88C       34         0
                text146                           1D858    1D858       34         0
                text145                           1D310    1D310       48         0
                text144                           1D824    1D824       34         0
                text143                           1D7F0    1D7F0       34         0
                text142                           1D7BC    1D7BC       34         0
                text141                           1D2C8    1D2C8       48         0
                text140                           1E14A    1E14A        4         0
                text139                           1E146    1E146        4         0
                text138                           1E09C    1E09C        A         0
                text137                           1E110    1E110        6         0
                text136                           1E10A    1E10A        6         0
                text135                           1E070    1E070        E         0
                text134                           1E092    1E092        A         0
                text133                           1E104    1E104        6         0
                text132                           1DE80    1DE80       16         0
                text131                           1E0FE    1E0FE        6         0
                text130                           1E0F8    1E0F8        6         0
                text129                           1E0F2    1E0F2        6         0
                text128                           1E0EC    1E0EC        6         0
                text127                           1DE6A    1DE6A       16         0
                text126                           1DE54    1DE54       16         0
                text125                           1E0DC    1E0DC        8         0
                text124                           1E088    1E088        A         0
                text123                           1DA26    1DA26       2E         0
                text122                           1DE3E    1DE3E       16         0
                text121                           1A442    1A442      128         0
                text120                           1C21C    1C21C       98         0
                text119                           1C8AA    1C8AA       7E         0
                text118                           1C17A    1C17A       A2         0
                text117                           1E062    1E062        E         0
                text116                           1E142    1E142        4         0
                text115                           1E13E    1E13E        4         0
                text114                           1DBD2    1DBD2       28         0
                text113                           1E0D4    1E0D4        8         0
                text112                           1E054    1E054        E         0
                text111                           1E0CC    1E0CC        8         0
                text110                           1E046    1E046        E         0
                text109                           1CB02    1CB02       70         0
                text108                           1C9A2    1C9A2       78         0
                text107                           1DFC6    1DFC6       10         0
                text106                           1CA90    1CA90       72         0
                text105                           1CEB0    1CEB0       5A         0
                text104                           1DD0C    1DD0C       1E         0
                text103                           1D05E    1D05E       52         0
                text102                           1E0C4    1E0C4        8         0
                text101                           1DC8A    1DC8A       22         0
                text100                           1C0D4    1C0D4       A6         0
                text99                            1BD7C    1BD7C       AE         0
                text98                            1DBAA    1DBAA       28         0
                text97                            1A306    1A306      13C         0
                text96                            1D3E2    1D3E2       42         0
                text95                            1C82A    1C82A       80         0
                text94                            1DC68    1DC68       22         0
                text93                            1DD2A    1DD2A       1C         0
                text92                            1D00C    1D00C       52         0
                text91                            18886    18886      23C         0
                text90                            1A56A    1A56A      116         0
                text89                            1B53A    1B53A       CC         0
                text88                            1CA1A    1CA1A       76         0
                text87                            1B79C    1B79C       C4         0
                text86                            1BCCC    1BCCC       B0         0
                text85                            171CE    171CE      392         0
                text84                            1BED8    1BED8       AC         0
                text83                            1A788    1A788      106         0
                text82                            16980    16980      428         0
                text81                            1D58E    1D58E       3A         0
                text80                            16012    16012      4B8         0
                text79                            1D280    1D280       48         0
                text78                            1A680    1A680      108         0
                text77                            1AA98    1AA98      100         0
                text76                            18CEC    18CEC      216         0
                text75                            1DDB0    1DDB0       18         0
                text74                            1E038    1E038        E         0
                text73                            1B46E    1B46E       CC         0
                text72                            1D238    1D238       48         0
                text71                            1D554    1D554       3A         0
                text70                            1B9E4    1B9E4       BE         0
                text69                            1D464    1D464       3E         0
                text68                            14E30    14E30      CA8         0
                text67                            1AF74    1AF74       DC         0
                text66                            19BB4    19BB4      188         0
                text65                            1A040    1A040      164         0
                text64                            1D71A    1D71A       36         0
                text63                            17E9A    17E9A      28E         0
                text62                            1CF0A    1CF0A       58         0
                text61                            13372    13372      DF6         0
                text60                            1968E    1968E      1C8         0
                text59                            1B3A0    1B3A0       CE         0
                text58                            19856    19856      1B4         0
                text57                            1AD92    1AD92       F2         0
                text56                            1B1FE    1B1FE       D2         0
                text55                            19114    19114      1D8         0
                text54                            1861E    1861E      268         0
                text53                            112B6    112B6     12AE         0
                text52                            1CD80    1CD80       66         0
                text51                            1DB82    1DB82       28         0
                text50                            17BCA    17BCA      2D0         0
                text49                            1DFB4    1DFB4       12         0
                text48                            1E07E    1E07E        A         0
                text47                            1C34A    1C34A       96         0
                text46                            1DFA2    1DFA2       12         0
                text45                            1DC46    1DC46       22         0
                text44                            1DB04    1DB04       2A         0
                text43                            1DF90    1DF90       12         0
                text42                            1CFB8    1CFB8       54         0
                text41                            1DCEC    1DCEC       20         0
                text40                            1E13A    1E13A        4         0
                text39                            1DF7E    1DF7E       12         0
                text38                            1E02A    1E02A        E         0
                text37                            1C2B4    1C2B4       96         0
                text36                            1DE28    1DE28       16         0
                text35                            1E01C    1E01C        E         0
                text34                            1D1EE    1D1EE       4A         0
                text33                            1E00E    1E00E        E         0
                text32                            1D1A0    1D1A0       4E         0
                text31                            1E000    1E000        E         0
                text30                            1D152    1D152       4E         0
                text29                            1DFF2    1DFF2        E         0
                text28                            1DFE4    1DFE4        E         0
                text27                            1DFD6    1DFD6        E         0
                text26                            1CE4C    1CE4C       64         0
                text25                            1DADA    1DADA       2A         0
                text24                            1CBDE    1CBDE       6A         0
                text23                            1C472    1C472       8E         0
                text22                            1D674    1D674       38         0
                text21                            1D424    1D424       40         0
                text20                            1DCCC    1DCCC       20         0
                text19                            1DF44    1DF44       14         0
                text18                            1DCAC    1DCAC       20         0
                text17                            1DF6C    1DF6C       12         0
                text16                            1C614    1C614       8A         0
                text15                            19EC2    19EC2      17E         0
                text14                            1C02E    1C02E       A6         0
                text13                            1CB72    1CB72       6C         0
                text12                            1D51A    1D51A       3A         0
                text11                            1BAA2    1BAA2       BC         0
                text10                            1D63C    1D63C       38         0
                text9                             178F0    178F0      2DA         0
                text8                             1CD1A    1CD1A       66         0
                text7                             1CCB2    1CCB2       68         0
                text6                             1C58A    1C58A       8A         0
                text5                             1DAB0    1DAB0       2A         0
                text4                             1D6E4    1D6E4       36         0
                text3                             1DD98    1DD98       18         0
                text2                             1DF30    1DF30       14         0
                text1                             1C7AA    1C7AA       80         0
                text0                             15AD8    15AD8      53A         0
                cinit                             1C500    1C500       8A         0
                idataBANK7                        1E0E4    1E0E4        7         0
                idataBANK5                        1E14E    1E14E        3         0

        CLASS   CONST          

        CLASS   SMALLCONST     

        CLASS   MEDIUMCONST    
                mediumconst                        FD52     FD52      2AE         0

        CLASS   COMRAM         
                cstackCOMRAM                        501      501       5B         1
                bssCOMRAM                           55C      55C        4         1

        CLASS   ABS1           

        CLASS   BIGRAM         

        CLASS   RAM            

        CLASS   BANK5          
                cstackBANK5                         560      560       49         1
                dataBANK5                           5EE      5EE        3         1
                bssBANK5                            5A9      5A9       45         1

        CLASS   BANK6          
                cstackBANK6                         600      600       B8         1
                bssBANK6                            6B8      6B8       39         1
                nvBANK6                             6F1      6F1        6         1

        CLASS   BANK7          
                cstackBANK7                         76C      76C       13         1
                dataBANK7                           78E      78E        7         1
                bssBANK7                            700      700       6C         1
                nvBANK7                             77F      77F        F         1

        CLASS   BANK8          
                bssBANK8                            800      800       F0         1

        CLASS   BANK9          

        CLASS   BANK10         

        CLASS   BANK11         

        CLASS   BANK12         

        CLASS   BANK13         

        CLASS   BANK14         

        CLASS   BANK15         

        CLASS   BANK16         

        CLASS   BANK17         

        CLASS   BANK18         

        CLASS   BANK19         

        CLASS   BANK20         

        CLASS   BANK21         

        CLASS   BANK22         

        CLASS   BANK23         

        CLASS   BANK24         

        CLASS   BANK25         

        CLASS   BANK26         

        CLASS   BANK27         

        CLASS   BANK28         

        CLASS   BANK29         

        CLASS   BANK30         

        CLASS   BANK31         

        CLASS   BANK32         

        CLASS   BANK33         

        CLASS   BANK34         

        CLASS   BANK35         

        CLASS   BANK36         

        CLASS   BANK37         

        CLASS   BANK38         

        CLASS   BANK39         

        CLASS   BANK40         

        CLASS   BANK41         

        CLASS   BANK42         

        CLASS   BANK43         

        CLASS   BANK44         

        CLASS   BANK45         

        CLASS   BANK46         

        CLASS   BANK47         

        CLASS   BANK48         

        CLASS   BANK49         

        CLASS   BANK50         

        CLASS   BANK51         

        CLASS   BANK52         

        CLASS   BANK53         

        CLASS   BANK54         

        CLASS   SFR            

        CLASS   BIGSFR         

        CLASS   CONFIG         
                config                           300000   300000       1F         4

        CLASS   IDLOC          

        CLASS   EEDATA         

        CLASS   FARRAM         

        CLASS   HEAP           

        CLASS   STACK          



SEGMENTS        Name                           Load    Length   Top    Selector   Space  Class

                reset_vec                      000000  000004  000004         0       0  CODE    
                ivt0x8                         000008  000016  00001E         4       0  CODE    
                cstackCOMRAM                   000501  00005F  000560       501       1  COMRAM  
                cstackBANK5                    000560  000091  0005F1       560       1  BANK5   
                cstackBANK6                    000600  0000F7  0006F7       600       1  BANK6   
                bssBANK7                       000700  000095  000795       700       1  BANK7   
                bssBANK8                       000800  0000F0  0008F0       800       1  BANK8   
                mediumconst                    00FD52  0002AE  010000      7EA9       0  MEDIUMCO
                text193                        010000  00E0EB  01E0EB      8000       0  CODE    
                text128                        01E0EC  000065  01E151      F076       0  CODE    
                text171                        01E152  000008  01E15A      F0A9       0  CODE    


UNUSED ADDRESS RANGES

        Name                Unused          Largest block    Delta
        BANK10           000A00-000AFF              100
        BANK11           000B00-000BFF              100
        BANK12           000C00-000CFF              100
        BANK13           000D00-000DFF              100
        BANK14           000E00-000EFF              100
        BANK15           000F00-000FFF              100
        BANK16           001000-0010FF              100
        BANK17           001100-0011FF              100
        BANK18           001200-0012FF              100
        BANK19           001300-0013FF              100
        BANK20           001400-0014FF              100
        BANK21           001500-0015FF              100
        BANK22           001600-0016FF              100
        BANK23           001700-0017FF              100
        BANK24           001800-0018FF              100
        BANK25           001900-0019FF              100
        BANK26           001A00-001AFF              100
        BANK27           001B00-001BFF              100
        BANK28           001C00-001CFF              100
        BANK29           001D00-001DFF              100
        BANK30           001E00-001EFF              100
        BANK31           001F00-001FFF              100
        BANK32           002000-0020FF              100
        BANK33           002100-0021FF              100
        BANK34           002200-0022FF              100
        BANK35           002300-0023FF              100
        BANK36           002400-0024FF              100
        BANK37           002500-0025FF              100
        BANK38           002600-0026FF              100
        BANK39           002700-0027FF              100
        BANK40           002800-0028FF              100
        BANK41           002900-0029FF              100
        BANK42           002A00-002AFF              100
        BANK43           002B00-002BFF              100
        BANK44           002C00-002CFF              100
        BANK45           002D00-002DFF              100
        BANK46           002E00-002EFF              100
        BANK47           002F00-002FFF              100
        BANK48           003000-0030FF              100
        BANK49           003100-0031FF              100
        BANK5            0005F1-0005FF                F
        BANK50           003200-0032FF              100
        BANK51           003300-0033FF              100
        BANK52           003400-0034FF              100
        BANK53           003500-0035FF              100
        BANK54           003600-0036FF              100
        BANK6            0006F7-0006FF                9
        BANK7            000795-0007FF               6B
        BANK8            0008F0-0008FF               10
        BANK9            000900-0009FF              100
        BIGRAM           0005F1-0005FF                F
                         0006F7-0006FF                9
                         000795-0007FF               6B
                         0008F0-0036FF             2E10
        BIGSFR           000000-0004FF              500
                         003700-003FFF              900
        CODE             000004-000007                4
                         00001E-00FD51             FD34
                         01E0EB-01E0EB                1
                         01E151-01E151                1
                         01E15A-01FFFF             1EA6
        CONFIG           30001F-300023                5
        CONST            000004-000007                4
                         00001E-00FD51             FD34
                         01E0EB-01E0EB                1
                         01E151-01E151                1
                         01E15A-01FFFF             1EA6
        EEDATA           380000-3803FF              400
        IDLOC            200000-20003F               40
        MEDIUMCONST      004000-00FD51             BD52
                         01E0EB-01E0EB                1
                         01E151-01E151                1
                         01E15A-01FFFF             1EA6
        RAM              0005F1-0005FF                F
                         0006F7-0006FF                9
                         000795-0007FF               6B
                         0008F0-0036FF              100
        SFR              000000-0004FF              100
                         003700-003FFF              100
        SMALLCONST       004000-00FD51              100
                         01E0EB-01E0EB                1
                         01E151-01E151                1
                         01E15A-01FFFF              100

                                  Symbol Table

?_LCD_print                                               cstackBANK6  0006A7
?___aodiv                                                 cstackBANK6  000600
?___aomod                                                 cstackBANK6  000600
?___awdiv                                                 cstackBANK6  000600
?___awmod                                                 cstackBANK6  000600
?___fladd                                                 cstackBANK6  000600
?___fldiv                                                 cstackBANK6  000600
?___flmul                                                 cstackBANK6  000600
?___flneg                                                 cstackBANK6  000600
?___flsub                                                 cstackBANK6  000619
?___fltol                                                 cstackBANK6  000600
?___fpclassifyf                                           cstackBANK6  000600
?___lldiv                                                 cstackBANK6  00060C
?___llmod                                                 cstackBANK6  000600
?___lmul                                                  cstackBANK6  000600
?___lodiv                                                 cstackBANK6  000600
?___lomod                                                 cstackBANK6  000600
?___lwdiv                                                 cstackBANK6  000600
?_abs                                                     cstackBANK6  000612
?_atoa                                                    cstackBANK6  00062D
?_ctoa                                                    cstackBANK6  00060B
?_dtoa                                                    cstackBANK6  00061B
?_efgtoa                                                  cstackBANK6  00062D
?_floorf                                                  cstackBANK6  000619
?_labs                                                    cstackBANK6  000600
?_otoa                                                    cstackBANK6  00061B
?_pad                                                     cstackBANK6  000612
?_power_get_average_kw                                    cstackBANK6  000619
?_power_get_bar                                           cstackBANK6  000619
?_power_get_instant_kw                                    cstackBANK6  000619
?_printf                                                  cstackBANK6  000692
?_read_prec_or_width                                      cstackBANK6  000600
?_stoa                                                    cstackBANK6  00060B
?_strlen                                                  cstackBANK6  000600
?_utoa                                                    cstackBANK6  00061B
?_vfpfcnvrt                                               cstackBANK6  00066A
?_vfprintf                                                cstackBANK6  00068A
?_xtoa                                                    cstackBANK6  00061B
?i2___aodiv                                               cstackCOMRAM 000501
?i2___aomod                                               cstackCOMRAM 000501
?i2___awdiv                                               cstackCOMRAM 000501
?i2___awmod                                               cstackCOMRAM 000501
?i2___fladd                                               cstackCOMRAM 000501
?i2___fldiv                                               cstackCOMRAM 000501
?i2___flmul                                               cstackCOMRAM 000501
?i2___flneg                                               cstackCOMRAM 000501
?i2___flsub                                               cstackCOMRAM 00051A
?i2___fltol                                               cstackCOMRAM 000501
?i2___fpclassifyf                                         cstackCOMRAM 000501
?i2___lmul                                                cstackCOMRAM 000501
?i2___lodiv                                               cstackCOMRAM 000501
?i2___lomod                                               cstackCOMRAM 000501
?i2_abs                                                   cstackCOMRAM 000513
?i2_atoa                                                  cstackCOMRAM 00052E
?i2_ctoa                                                  cstackCOMRAM 00050C
?i2_dtoa                                                  cstackCOMRAM 00051C
?i2_efgtoa                                                cstackCOMRAM 00052E
?i2_floorf                                                cstackCOMRAM 00051A
?i2_labs                                                  cstackCOMRAM 000501
?i2_otoa                                                  cstackCOMRAM 00051C
?i2_pad                                                   cstackCOMRAM 000513
?i2_printf                                                cstackBANK5  00059F
?i2_read_prec_or_width                                    cstackCOMRAM 000501
?i2_stoa                                                  cstackCOMRAM 00050C
?i2_strlen                                                cstackCOMRAM 000501
?i2_utoa                                                  cstackCOMRAM 00051C
?i2_vfpfcnvrt                                             cstackBANK5  000593
?i2_vfprintf                                              cstackBANK5  000599
?i2_xtoa                                                  cstackCOMRAM 00051C
CAN1_OperationModeSet@opMode                              cstackBANK6  000600
CAN1_OperationModeSet@requestMode                         cstackBANK6  000602
CAN1_OperationModeSet@status                              cstackBANK6  000601
CAN1_RX_FIFO_ResetInfo@index                              cstackBANK6  000600
CAN1_Receive@channel                                      cstackBANK6  00061E
CAN1_Receive@index                                        cstackBANK6  00061F
CAN1_Receive@rxCanMsg                                     cstackBANK6  000616
CAN1_Receive@rxFifoObj                                    cstackBANK6  00061B
CAN1_Receive@rxMsgStatus                                  cstackBANK6  00061D
CAN1_Receive@status                                       cstackBANK6  00061A
CAN1_ReceivedMessageCountGet@channel                      cstackBANK6  000605
CAN1_ReceivedMessageCountGet@fifoDepth                    cstackBANK6  000606
CAN1_ReceivedMessageCountGet@fifoHead                     cstackBANK6  000608
CAN1_ReceivedMessageCountGet@fifoTail                     cstackBANK6  000607
CAN1_ReceivedMessageCountGet@index                        cstackBANK6  000609
CAN1_ReceivedMessageCountGet@numOfMsg                     cstackBANK6  000603
CAN1_ReceivedMessageCountGet@rxMsgStatus                  cstackBANK6  000604
CAN1_ReceivedMessageCountGet@totalMsgObj                  cstackBANK6  000602
CAN1_Transmit@fifoChannel                                 cstackCOMRAM 00051C
CAN1_Transmit@status                                      cstackCOMRAM 00051B
CAN1_Transmit@txCanMsg                                    cstackCOMRAM 000517
CAN1_Transmit@txFifoObj                                   cstackCOMRAM 000519
GetDashboardData@data                                     cstackBANK6  000600
GetRxFifoDepth@validChannel                               cstackBANK6  000601
GetRxFifoStatus@validChannel                              cstackBANK6  000600
GetTxFifoStatus@validChannel                              cstackCOMRAM 000501
I2C1_CallbackReturnReset@funPtr                           cstackBANK6  00060B
I2C1_Close@returnValue                                    cstackBANK6  000600
I2C1_DO_RX@retFsmState                                    cstackBANK6  000611
I2C1_DO_TX@dataTx                                         cstackBANK6  00060F
I2C1_DO_TX@retFsmState                                    cstackBANK6  000610
I2C1_MasterOperation@read                                 cstackBANK6  000613
I2C1_MasterOperation@returnValue                          cstackBANK6  000614
I2C1_MasterSendTxData@data                                cstackBANK6  000600
I2C1_MasterSetCounter@counter                             cstackBANK6  000600
I2C1_Open@address                                         cstackBANK6  000600
I2C1_Open@returnValue                                     cstackBANK6  000601
I2C1_SetBuffer@buffer                                     cstackBANK6  000600
I2C1_SetBuffer@bufferSize                                 cstackBANK6  000602
I2C1_SetBuffer_4bitmode@buffer                            cstackBANK6  000606
I2C1_SetBuffer_4bitmode@data                              cstackBANK6  00060A
I2C1_SetBuffer_4bitmode@data_high                         cstackBANK6  00060B
I2C1_SetBuffer_4bitmode@data_low                          cstackBANK6  00060C
I2C1_SetBuffer_4bitmode@rs                                cstackBANK6  000604
I2C1_SetCallback@cb                                       cstackBANK6  000600
I2C1_SetCallback@idx                                      cstackBANK6  000605
I2C1_SetCallback@ptr                                      cstackBANK6  000603
I2C1_SetDataCompleteCallback@cb                           cstackBANK6  000606
I2C1_SetDataCompleteCallback@ptr                          cstackBANK6  000609
IOCAF0_SetInterruptHandler@InterruptHandler               cstackBANK6  000600
IVTBASEH                                                  (abs)        00045E
IVTBASEL                                                  (abs)        00045D
IVTBASEU                                                  (abs)        00045F
LCD_clear_row@row                                         cstackBANK6  0006B1
LCD_create_custom_char@F23609                             mediumconst  00FDAF
LCD_create_custom_char@F23611                             mediumconst  00FDA7
LCD_create_custom_char@F23613                             mediumconst  00FD9F
LCD_create_custom_char@i                                  cstackBANK6  00062F
LCD_create_custom_char@i_2904                             cstackBANK6  000631
LCD_create_custom_char@i_2905                             cstackBANK6  000633
LCD_create_custom_char@left                               cstackBANK6  000617
LCD_create_custom_char@middle                             cstackBANK6  00061F
LCD_create_custom_char@right                              cstackBANK6  000627
LCD_print@args                                            cstackBANK7  00077D
LCD_print@buffer                                          cstackBANK7  00076C
LCD_print@str                                             cstackBANK6  0006A7
LCD_send_byte@data                                        cstackBANK6  000616
LCD_send_byte@rs                                          cstackBANK6  000615
LCD_send_nibble_cmd@buffer                                cstackBANK6  000615
LCD_send_nibble_cmd@data_high                             cstackBANK6  000617
LCD_set_cursor@address                                    cstackBANK6  00061B
LCD_set_cursor@col                                        cstackBANK6  000617
LCD_set_cursor@row                                        cstackBANK6  000618
LCD_write_char@c                                          cstackBANK6  000617
LCD_write_string@str                                      cstackBANK6  000617
ProcessCANMessages@i                                      cstackBANK6  0006A2
ProcessCANMessages@i_3017                                 cstackBANK6  0006A3
ProcessCANMessages@i_3019                                 cstackBANK6  0006A4
ReadMessageFromFifo@msgId                                 cstackBANK6  000611
ReadMessageFromFifo@rxCanMsg                              cstackBANK6  00060D
ReadMessageFromFifo@rxFifoObj                             cstackBANK6  00060B
ReadMessageFromFifo@status                                cstackBANK6  000615
RealTimeClockHandler@F23661                               bssBANK7     000700
RealTimeClockHandler@data                                 cstackCOMRAM 000515
SendReverseRequest@reverse                                cstackCOMRAM 000558
SendReverseRequest@status                                 cstackCOMRAM 000559
TMR0_ISR@CountCallBack                                    bssBANK5     0005C9
TMR0_SetInterruptHandler@InterruptHandler                 cstackBANK6  000600
TMR1_ISR@CountCallBack                                    bssBANK5     0005CD
TMR1_SetInterruptHandler@InterruptHandler                 cstackBANK6  000600
TMR1_WriteTimer@timerVal                                  cstackCOMRAM 000501
TMR3_SetInterruptHandler@InterruptHandler                 cstackBANK6  000600
TMR3_WriteTimer@timerVal                                  cstackCOMRAM 000501
UART1_SetErrorHandler@interruptHandler                    cstackBANK6  000600
UART1_SetFramingErrorHandler@interruptHandler             cstackBANK6  000600
UART1_SetOverrunErrorHandler@interruptHandler             cstackBANK6  000600
UART1_Write@txData                                        cstackBANK6  000600
ValidateTransmission@field                                cstackCOMRAM 000509
ValidateTransmission@txCanMsg                             cstackCOMRAM 000502
ValidateTransmission@txMsgStatus                          cstackCOMRAM 000508
ValidateTransmission@validChannel                         cstackCOMRAM 000507
WriteMessageToFifo@msgId                                  cstackCOMRAM 000513
WriteMessageToFifo@status                                 cstackCOMRAM 000512
WriteMessageToFifo@txCanMsg                               cstackCOMRAM 00050E
WriteMessageToFifo@txFifoObj                              cstackCOMRAM 00050C
_ANSELA                                                   (abs)        000400
_ANSELB                                                   (abs)        000408
_ANSELC                                                   (abs)        000410
_ANSELD                                                   (abs)        000418
_ANSELE                                                   (abs)        000420
_ButtonHoldTimer                                          text170      01DDE0
_ButtonPressHandler                                       text186      01AC96
_C1CONH                                                   (abs)        000101
_C1CONHbits                                               (abs)        000101
_C1CONL                                                   (abs)        000100
_C1CONTbits                                               (abs)        000103
_C1CONU                                                   (abs)        000102
_C1CONUbits                                               (abs)        000102
_C1FIFOBA                                                 (abs)        00014C
_C1FIFOCON1H                                              (abs)        00015D
_C1FIFOCON1L                                              (abs)        00015C
_C1FIFOCON1T                                              (abs)        00015F
_C1FIFOCON1U                                              (abs)        00015E
_C1FLTCON0L                                               (abs)        000180
_C1FLTOBJ0H                                               (abs)        00018D
_C1FLTOBJ0L                                               (abs)        00018C
_C1FLTOBJ0T                                               (abs)        00018F
_C1FLTOBJ0U                                               (abs)        00018E
_C1INTHbits                                               (abs)        00011D
_C1INTTbits                                               (abs)        00011F
_C1MASK0H                                                 (abs)        000191
_C1MASK0L                                                 (abs)        000190
_C1MASK0T                                                 (abs)        000193
_C1MASK0U                                                 (abs)        000192
_C1NBTCFGH                                                (abs)        000105
_C1NBTCFGL                                                (abs)        000104
_C1NBTCFGT                                                (abs)        000107
_C1NBTCFGU                                                (abs)        000106
_C1TRECUbits                                              (abs)        000136
_C1TXQCONH                                                (abs)        000151
_C1TXQCONL                                                (abs)        000150
_C1TXQCONT                                                (abs)        000153
_C1TXQCONU                                                (abs)        000152
_CAN1_BitRateConfiguration                                text49       01DFB4
_CAN1_Initialize                                          text42       01CFB8
_CAN1_IsBusOff                                            text237      01DF1A
_CAN1_IsTxErrorActive                                     text235      01DD7E
_CAN1_IsTxErrorPassive                                    text236      01DF04
_CAN1_OperationModeGet                                    text48       01E07E
_CAN1_OperationModeSet                                    text47       01C34A
_CAN1_RX_FIFO_Configuration                               text46       01DFA2
_CAN1_RX_FIFO_FilterMaskConfiguration                     text45       01DC46
_CAN1_RX_FIFO_ResetInfo                                   text44       01DB04
_CAN1_Receive                                             text90       01A56A
_CAN1_ReceivedMessageCountGet                             text89       01B53A
_CAN1_TX_FIFO_Configuration                               text43       01DF90
_CAN1_Transmit                                            text228      01C3E0
_CANRXPPS                                                 (abs)        00023D
_DLC_BYTES                                                mediumconst  00FD96
_GetDashboardData                                         text165      01DDC8
_GetRxFifoDepth                                           text94       01DC68
_GetRxFifoStatus                                          text93       01DD2A
_GetTxFifoStatus                                          text234      01DE10
_I2C1BAUD                                                 (abs)        00029D
_I2C1CLK                                                  (abs)        00029E
_I2C1CNTH                                                 (abs)        00028D
_I2C1CNTL                                                 (abs)        00028C
_I2C1CON0                                                 (abs)        000294
_I2C1CON0bits                                             (abs)        000294
_I2C1CON1                                                 (abs)        000295
_I2C1CON1bits                                             (abs)        000295
_I2C1CON2                                                 (abs)        000296
_I2C1ERR                                                  (abs)        000297
_I2C1ERRbits                                              (abs)        000297
_I2C1PIE                                                  (abs)        00029B
_I2C1PIEbits                                              (abs)        00029B
_I2C1PIR                                                  (abs)        00029A
_I2C1PIRbits                                              (abs)        00029A
_I2C1RXB                                                  (abs)        00028A
_I2C1SCLPPS                                               (abs)        000271
_I2C1SDAPPS                                               (abs)        000270
_I2C1STAT1bits                                            (abs)        000299
_I2C1TXB                                                  (abs)        00028B
_I2C1_CallbackReturnReset                                 text139      01E146
_I2C1_CallbackReturnStop                                  text140      01E14A
_I2C1_ClearInterruptFlags                                 text154      01D0B0
_I2C1_Close                                               text161      01DA54
_I2C1_DO_ADDRESS_NACK                                     text109      01CB02
_I2C1_DO_BUS_COLLISION                                    text108      01C9A2
_I2C1_DO_BUS_ERROR                                        text107      01DFC6
_I2C1_DO_IDLE                                             text124      01E088
_I2C1_DO_RESET                                            text110      01E046
_I2C1_DO_RX                                               text120      01C21C
_I2C1_DO_RX_ACK                                           text113      01E0D4
_I2C1_DO_RX_EMPTY                                         text118      01C17A
_I2C1_DO_RX_NACK_RESTART                                  text111      01E0CC
_I2C1_DO_RX_NACK_STOP                                     text112      01E054
_I2C1_DO_SEND_ADR_READ                                    text123      01DA26
_I2C1_DO_SEND_ADR_WRITE                                   text122      01DE3E
_I2C1_DO_SEND_RESTART                                     text115      01E13E
_I2C1_DO_SEND_RESTART_READ                                text117      01E062
_I2C1_DO_SEND_RESTART_WRITE                               text116      01E142
_I2C1_DO_SEND_STOP                                        text114      01DBD2
_I2C1_DO_TX                                               text121      01A442
_I2C1_DO_TX$1066                                          cstackBANK6  000611
_I2C1_DO_TX_ACK                                           text125      01E0DC
_I2C1_DO_TX_EMPTY                                         text119      01C8AA
_I2C1_Initialize                                          text41       01DCEC
_I2C1_MasterClearCountFlag                                text160      01E122
_I2C1_MasterClearIrq                                      text164      01E128
_I2C1_MasterClearNackFlag                                 text159      01E11C
_I2C1_MasterClearStopFlag                                 text158      01E116
_I2C1_MasterClose                                         text163      01E0A6
_I2C1_MasterDisableIrq                                    text162      01DD62
_I2C1_MasterDisableRestart                                text137      01E110
_I2C1_MasterEnableRestart                                 text136      01E10A
_I2C1_MasterFsm                                           text106      01CA90
_I2C1_MasterGetCounter                                    text128      01E0EC
_I2C1_MasterGetRxData                                     text133      01E104
_I2C1_MasterIsCountFlagSet                                text157      01DEC2
_I2C1_MasterIsNack                                        text127      01DE6A
_I2C1_MasterIsNackFlagSet                                 text156      01DEAC
_I2C1_MasterIsRxBufFull                                   text132      01DE80
_I2C1_MasterIsStopFlagSet                                 text155      01DE96
_I2C1_MasterIsTxBufEmpty                                  text126      01DE54
_I2C1_MasterOpen                                          text101      01DC8A
_I2C1_MasterOperation                                     text103      01D05E
_I2C1_MasterResetBus                                      text138      01E09C
_I2C1_MasterSendAck                                       text131      01E0FE
_I2C1_MasterSendNack                                      text130      01E0F8
_I2C1_MasterSendTxData                                    text134      01E092
_I2C1_MasterSetCounter                                    text135      01E070
_I2C1_MasterStop                                          text129      01E0F2
_I2C1_MasterWaitForEvent                                  text105      01CEB0
_I2C1_MasterWrite                                         text102      01E0C4
_I2C1_Open                                                text100      01C0D4
_I2C1_Poller                                              text104      01DD0C
_I2C1_SetBuffer                                           text153      01DC22
_I2C1_SetBuffer_4bitmode                                  text99       01BD7C
_I2C1_SetCallback                                         text152      01C726
_I2C1_SetDataCompleteCallback                             text151      01DD46
_I2C1_Status                                              bssBANK6     0006B8
_INLVLA                                                   (abs)        000404
_INLVLB                                                   (abs)        00040C
_INLVLC                                                   (abs)        000414
_INLVLD                                                   (abs)        00041C
_INLVLE                                                   (abs)        000424
_INTCON0bits                                              (abs)        0004D6
_INTERRUPT_Initialize                                     text40       01E13A
_INTERRUPT_InterruptManager                               text166      01B860
_IOCAF0_DefaultInterruptHandler                           text187      01E158
_IOCAF0_ISR                                               text185      01D750
_IOCAF0_InterruptHandler                                  nvBANK6      0006F4
_IOCAF0_SetInterruptHandler                               text38       01E02A
_IOCAFbits                                                (abs)        000407
_IOCANbits                                                (abs)        000406
_IOCAPbits                                                (abs)        000405
_LATA                                                     (abs)        0004BE
_LATB                                                     (abs)        0004BF
_LATC                                                     (abs)        0004C0
_LATD                                                     (abs)        0004C1
_LATE                                                     (abs)        0004C2
_LCD_clear                                                text18       01DCAC
_LCD_clear_row                                            text20       01DCCC
_LCD_create_custom_char                                   text97       01A306
_LCD_init                                                 text95       01C82A
_LCD_print                                                text22       01D674
_LCD_send_byte                                            text98       01DBAA
_LCD_send_nibble_cmd                                      text96       01D3E2
_LCD_set_cursor                                           text21       01D424
_LCD_set_cursor$2879                                      cstackBANK6  000619
_LCD_write_char                                           text17       01DF6C
_LCD_write_string                                         text24       01CBDE
_ODCONA                                                   (abs)        000402
_ODCONB                                                   (abs)        00040A
_ODCONC                                                   (abs)        000412
_ODCOND                                                   (abs)        00041A
_ODCONE                                                   (abs)        000422
_OSCCON1                                                  (abs)        0000AD
_OSCCON3                                                  (abs)        0000AF
_OSCEN                                                    (abs)        0000B3
_OSCFRQ                                                   (abs)        0000B1
_OSCILLATOR_Initialize                                    text39       01DF7E
_OSCTUNE                                                  (abs)        0000B0
_PIE0bits                                                 (abs)        00049E
_PIE3bits                                                 (abs)        0004A1
_PIE5bits                                                 (abs)        0004A3
_PIE7bits                                                 (abs)        0004A5
_PIN_MANAGER_IOC                                          text184      01DED8
_PIN_MANAGER_Initialize                                   text37       01C2B4
_PIR0bits                                                 (abs)        0004AE
_PIR3bits                                                 (abs)        0004B1
_PIR4bits                                                 (abs)        0004B2
_PIR5bits                                                 (abs)        0004B3
_PIR7bits                                                 (abs)        0004B5
_PMD0                                                     (abs)        000060
_PMD1                                                     (abs)        000061
_PMD2                                                     (abs)        000062
_PMD3                                                     (abs)        000063
_PMD4                                                     (abs)        000064
_PMD5                                                     (abs)        000065
_PMD6                                                     (abs)        000066
_PMD7                                                     (abs)        000067
_PMD8                                                     (abs)        000068
_PMD_Initialize                                           text36       01DE28
_PORTAbits                                                (abs)        0004CE
_ProcessCANMessages                                       text50       017BCA
_R2Duptime_seconds                                        bssBANK5     0005C1
_RB4PPS                                                   (abs)        00020D
_RB5PPS                                                   (abs)        00020E
_RC3PPS                                                   (abs)        000214
_RC4PPS                                                   (abs)        000215
_ReadMessageFromFifo                                      text91       018886
_RealTimeClockHandler                                     text175      01C928
_SLRCONA                                                  (abs)        000403
_SLRCONB                                                  (abs)        00040B
_SLRCONC                                                  (abs)        000413
_SLRCOND                                                  (abs)        00041B
_SLRCONE                                                  (abs)        000423
_SYSTEM_Initialize                                        text25       01DADA
_SendReverseRequest                                       text190      01C69E
_T0CON0                                                   (abs)        00031A
_T0CON0bits                                               (abs)        00031A
_T0CON1                                                   (abs)        00031B
_T1CLK                                                    (abs)        000321
_T1CON                                                    (abs)        00031E
_T1CONbits                                                (abs)        00031E
_T1GATE                                                   (abs)        000320
_T1GCON                                                   (abs)        00031F
_T1GCONbits                                               (abs)        00031F
_T3CLK                                                    (abs)        00032D
_T3CON                                                    (abs)        00032A
_T3CONbits                                                (abs)        00032A
_T3GATE                                                   (abs)        00032C
_T3GCON                                                   (abs)        00032B
_T3GCONbits                                               (abs)        00032B
_TMR0H                                                    (abs)        000319
_TMR0IE                                                   (abs)        00250F
_TMR0IF                                                   (abs)        00258F
_TMR0L                                                    (abs)        000318
_TMR0_CallBack                                            text181      01D9F4
_TMR0_DefaultInterruptHandler                             text182      01E156
_TMR0_ISR                                                 text180      01D602
_TMR0_Initialize                                          text34       01D1EE
_TMR0_InterruptHandler                                    nvBANK7      000782
_TMR0_SetInterruptHandler                                 text35       01E01C
_TMR1H                                                    (abs)        00031D
_TMR1L                                                    (abs)        00031C
_TMR1_CallBack                                            text174      01D9C2
_TMR1_DefaultInterruptHandler                             text176      01E154
_TMR1_ISR                                                 text172      01D5C8
_TMR1_Initialize                                          text32       01D1A0
_TMR1_InterruptHandler                                    nvBANK6      0006F1
_TMR1_SetInterruptHandler                                 text33       01E00E
_TMR1_WriteTimer                                          text173      01DB58
_TMR3H                                                    (abs)        000329
_TMR3L                                                    (abs)        000328
_TMR3_CallBack                                            text169      01D990
_TMR3_DefaultInterruptHandler                             text171      01E152
_TMR3_ISR                                                 text167      01DF58
_TMR3_Initialize                                          text30       01D152
_TMR3_InterruptHandler                                    nvBANK7      00077F
_TMR3_SetInterruptHandler                                 text31       01E000
_TMR3_StartTimer                                          text189      01E134
_TMR3_StopTimer                                           text188      01E12E
_TMR3_WriteTimer                                          text168      01DB2E
_TRISA                                                    (abs)        0004C6
_TRISB                                                    (abs)        0004C7
_TRISC                                                    (abs)        0004C8
_TRISD                                                    (abs)        0004C9
_TRISE                                                    (abs)        0004CA
_U1BRGH                                                   (abs)        0002AF
_U1BRGL                                                   (abs)        0002AE
_U1CON0                                                   (abs)        0002AB
_U1CON0bits                                               (abs)        0002AB
_U1CON1                                                   (abs)        0002AC
_U1CON2                                                   (abs)        0002AD
_U1ERRIE                                                  (abs)        0002B3
_U1ERRIR                                                  (abs)        0002B2
_U1ERRIRbits                                              (abs)        0002B2
_U1FIFO                                                   (abs)        0002B0
_U1P1H                                                    (abs)        0002A6
_U1P1L                                                    (abs)        0002A5
_U1P2H                                                    (abs)        0002A8
_U1P2L                                                    (abs)        0002A7
_U1P3H                                                    (abs)        0002AA
_U1P3L                                                    (abs)        0002A9
_U1RXB                                                    (abs)        0002A1
_U1TXB                                                    (abs)        0002A3
_U1UIR                                                    (abs)        0002B1
_UART1_DefaultErrorHandler                                (abs)        000000
_UART1_DefaultFramingErrorHandler                         (abs)        000000
_UART1_DefaultOverrunErrorHandler                         (abs)        000000
_UART1_ErrorHandler                                       nvBANK7      000785
_UART1_FramingErrorHandler                                nvBANK7      00078B
_UART1_Initialize                                         text26       01CE4C
_UART1_OverrunErrorHandler                                nvBANK7      000788
_UART1_SetErrorHandler                                    text29       01DFF2
_UART1_SetFramingErrorHandler                             text28       01DFE4
_UART1_SetOverrunErrorHandler                             text27       01DFD6
_UART1_Write                                              text75       01DDB0
_ValidateTransmission                                     text232      01B128
_WPUA                                                     (abs)        000401
_WPUB                                                     (abs)        000409
_WPUC                                                     (abs)        000411
_WPUD                                                     (abs)        000419
_WPUE                                                     (abs)        000421
_WriteMessageToFifo                                       text230      018AC2
__HRAM                                                    (abs)        000000
__H__absolute__                                           __absolute__ 000000
__Habs1                                                   abs1         000000
__Hbank10                                                 bank10       000000
__Hbank11                                                 bank11       000000
__Hbank12                                                 bank12       000000
__Hbank13                                                 bank13       000000
__Hbank14                                                 bank14       000000
__Hbank15                                                 bank15       000000
__Hbank16                                                 bank16       000000
__Hbank17                                                 bank17       000000
__Hbank18                                                 bank18       000000
__Hbank19                                                 bank19       000000
__Hbank20                                                 bank20       000000
__Hbank21                                                 bank21       000000
__Hbank22                                                 bank22       000000
__Hbank23                                                 bank23       000000
__Hbank24                                                 bank24       000000
__Hbank25                                                 bank25       000000
__Hbank26                                                 bank26       000000
__Hbank27                                                 bank27       000000
__Hbank28                                                 bank28       000000
__Hbank29                                                 bank29       000000
__Hbank30                                                 bank30       000000
__Hbank31                                                 bank31       000000
__Hbank32                                                 bank32       000000
__Hbank33                                                 bank33       000000
__Hbank34                                                 bank34       000000
__Hbank35                                                 bank35       000000
__Hbank36                                                 bank36       000000
__Hbank37                                                 bank37       000000
__Hbank38                                                 bank38       000000
__Hbank39                                                 bank39       000000
__Hbank40                                                 bank40       000000
__Hbank41                                                 bank41       000000
__Hbank42                                                 bank42       000000
__Hbank43                                                 bank43       000000
__Hbank44                                                 bank44       000000
__Hbank45                                                 bank45       000000
__Hbank46                                                 bank46       000000
__Hbank47                                                 bank47       000000
__Hbank48                                                 bank48       000000
__Hbank49                                                 bank49       000000
__Hbank5                                                  bank5        000000
__Hbank50                                                 bank50       000000
__Hbank51                                                 bank51       000000
__Hbank52                                                 bank52       000000
__Hbank53                                                 bank53       000000
__Hbank54                                                 bank54       000000
__Hbank6                                                  bank6        000000
__Hbank7                                                  bank7        000000
__Hbank8                                                  bank8        000000
__Hbank9                                                  bank9        000000
__Hbigbss                                                 bigbss       000000
__Hbigdata                                                bigdata      000000
__Hbigram                                                 bigram       000000
__Hbigsfr                                                 bigsfr       000000
__Hbss                                                    bss          000000
__HbssBANK5                                               bssBANK5     000000
__HbssBANK6                                               bssBANK6     000000
__HbssBANK7                                               bssBANK7     000000
__HbssBANK8                                               bssBANK8     000000
__HbssCOMRAM                                              bssCOMRAM    000000
__Hcinit                                                  cinit        000000
__Hclrtext                                                clrtext      000000
__Hcomram                                                 comram       000000
__Hconfig                                                 config       30001F
__Hconst                                                  const        000000
__HcstackBANK5                                            cstackBANK5  000000
__HcstackBANK6                                            cstackBANK6  000000
__HcstackBANK7                                            cstackBANK7  000000
__HcstackCOMRAM                                           cstackCOMRAM 000000
__Hdata                                                   data         000000
__HdataBANK5                                              dataBANK5    000000
__HdataBANK7                                              dataBANK7    000000
__Heeprom_data                                            eeprom_data  000000
__Hfarbss                                                 farbss       000000
__Hfardata                                                fardata      000000
__Hheap                                                   heap         000000
__Hibigdata                                               ibigdata     000000
__Hidata                                                  idata        000000
__HidataBANK5                                             idataBANK5   000000
__HidataBANK7                                             idataBANK7   000000
__Hidloc                                                  idloc        000000
__Hifardata                                               ifardata     000000
__Hinit                                                   init         00001E
__Hintsave_regs                                           intsave_regs 000000
__Hirdata                                                 irdata       000000
__Hivt0x8                                                 ivt0x8       00001A
__Hmediumconst                                            mediumconst  010000
__HnvBANK6                                                nvBANK6      000000
__HnvBANK7                                                nvBANK7      000000
__HnvFARRAM                                               nvFARRAM     000000
__Hnvbit                                                  nvbit        000000
__Hnvrram                                                 nvrram       000000
__Hparam                                                  rparam       000000
__Hpowerup                                                powerup      000000
__Hram                                                    ram          000000
__Hramtop                                                 ramtop       004000
__Hrbit                                                   rbit         000000
__Hrbss                                                   rbss         000000
__Hrdata                                                  rdata        000000
__Hreset_vec                                              reset_vec    000004
__Hrparam                                                 rparam       000000
__Hsfr                                                    sfr          000000
__Hsmallconst                                             smallconst   000000
__Hspace_0                                                (abs)        01E15A
__Hspace_1                                                (abs)        0008F0
__Hspace_2                                                (abs)        000000
__Hspace_4                                                (abs)        60001F
__Hstack                                                  stack        000000
__Hstruct                                                 struct       000000
__Htemp                                                   temp         000000
__Htext                                                   text         000000
__Htext0                                                  text0        000000
__Htext1                                                  text1        000000
__Htext10                                                 text10       000000
__Htext100                                                text100      000000
__Htext101                                                text101      000000
__Htext102                                                text102      000000
__Htext103                                                text103      000000
__Htext104                                                text104      000000
__Htext105                                                text105      000000
__Htext106                                                text106      000000
__Htext107                                                text107      000000
__Htext108                                                text108      000000
__Htext109                                                text109      000000
__Htext11                                                 text11       000000
__Htext110                                                text110      000000
__Htext111                                                text111      000000
__Htext112                                                text112      000000
__Htext113                                                text113      000000
__Htext114                                                text114      000000
__Htext115                                                text115      000000
__Htext116                                                text116      000000
__Htext117                                                text117      000000
__Htext118                                                text118      000000
__Htext119                                                text119      000000
__Htext12                                                 text12       000000
__Htext120                                                text120      000000
__Htext121                                                text121      000000
__Htext122                                                text122      000000
__Htext123                                                text123      000000
__Htext124                                                text124      000000
__Htext125                                                text125      000000
__Htext126                                                text126      000000
__Htext127                                                text127      000000
__Htext128                                                text128      000000
__Htext129                                                text129      000000
__Htext13                                                 text13       000000
__Htext130                                                text130      000000
__Htext131                                                text131      000000
__Htext132                                                text132      000000
__Htext133                                                text133      000000
__Htext134                                                text134      000000
__Htext135                                                text135      000000
__Htext136                                                text136      000000
__Htext137                                                text137      000000
__Htext138                                                text138      000000
__Htext139                                                text139      000000
__Htext14                                                 text14       000000
__Htext140                                                text140      000000
__Htext141                                                text141      000000
__Htext142                                                text142      000000
__Htext143                                                text143      000000
__Htext144                                                text144      000000
__Htext145                                                text145      000000
__Htext146                                                text146      000000
__Htext147                                                text147      000000
__Htext148                                                text148      000000
__Htext149                                                text149      000000
__Htext15                                                 text15       000000
__Htext150                                                text150      000000
__Htext151                                                text151      000000
__Htext152                                                text152      000000
__Htext153                                                text153      000000
__Htext154                                                text154      000000
__Htext155                                                text155      000000
__Htext156                                                text156      000000
__Htext157                                                text157      000000
__Htext158                                                text158      000000
__Htext159                                                text159      000000
__Htext16                                                 text16       000000
__Htext160                                                text160      000000
__Htext161                                                text161      000000
__Htext162                                                text162      000000
__Htext163                                                text163      000000
__Htext164                                                text164      000000
__Htext165                                                text165      000000
__Htext166                                                text166      000000
__Htext167                                                text167      000000
__Htext168                                                text168      000000
__Htext169                                                text169      000000
__Htext17                                                 text17       000000
__Htext170                                                text170      000000
__Htext171                                                text171      000000
__Htext172                                                text172      000000
__Htext173                                                text173      000000
__Htext174                                                text174      000000
__Htext175                                                text175      000000
__Htext176                                                text176      000000
__Htext177                                                text177      000000
__Htext178                                                text178      000000
__Htext179                                                text179      000000
__Htext18                                                 text18       000000
__Htext180                                                text180      000000
__Htext181                                                text181      000000
__Htext182                                                text182      000000
__Htext183                                                text183      000000
__Htext184                                                text184      000000
__Htext185                                                text185      000000
__Htext186                                                text186      000000
__Htext187                                                text187      000000
__Htext188                                                text188      000000
__Htext189                                                text189      000000
__Htext19                                                 text19       000000
__Htext190                                                text190      000000
__Htext191                                                text191      000000
__Htext192                                                text192      000000
__Htext193                                                text193      000000
__Htext194                                                text194      000000
__Htext195                                                text195      000000
__Htext196                                                text196      000000
__Htext197                                                text197      000000
__Htext198                                                text198      000000
__Htext199                                                text199      000000
__Htext2                                                  text2        000000
__Htext20                                                 text20       000000
__Htext200                                                text200      000000
__Htext201                                                text201      000000
__Htext202                                                text202      000000
__Htext203                                                text203      000000
__Htext204                                                text204      000000
__Htext205                                                text205      000000
__Htext206                                                text206      000000
__Htext207                                                text207      000000
__Htext208                                                text208      000000
__Htext209                                                text209      000000
__Htext21                                                 text21       000000
__Htext210                                                text210      000000
__Htext211                                                text211      000000
__Htext212                                                text212      000000
__Htext213                                                text213      000000
__Htext214                                                text214      000000
__Htext215                                                text215      000000
__Htext216                                                text216      000000
__Htext217                                                text217      000000
__Htext218                                                text218      000000
__Htext219                                                text219      000000
__Htext22                                                 text22       000000
__Htext220                                                text220      000000
__Htext221                                                text221      000000
__Htext222                                                text222      000000
__Htext223                                                text223      000000
__Htext224                                                text224      000000
__Htext225                                                text225      000000
__Htext226                                                text226      000000
__Htext227                                                text227      000000
__Htext228                                                text228      000000
__Htext229                                                text229      000000
__Htext23                                                 text23       000000
__Htext230                                                text230      000000
__Htext231                                                text231      000000
__Htext232                                                text232      000000
__Htext233                                                text233      000000
__Htext234                                                text234      000000
__Htext235                                                text235      000000
__Htext236                                                text236      000000
__Htext237                                                text237      000000
__Htext24                                                 text24       000000
__Htext25                                                 text25       000000
__Htext26                                                 text26       000000
__Htext27                                                 text27       000000
__Htext28                                                 text28       000000
__Htext29                                                 text29       000000
__Htext3                                                  text3        000000
__Htext30                                                 text30       000000
__Htext31                                                 text31       000000
__Htext32                                                 text32       000000
__Htext33                                                 text33       000000
__Htext34                                                 text34       000000
__Htext35                                                 text35       000000
__Htext36                                                 text36       000000
__Htext37                                                 text37       000000
__Htext38                                                 text38       000000
__Htext39                                                 text39       000000
__Htext4                                                  text4        000000
__Htext40                                                 text40       000000
__Htext41                                                 text41       000000
__Htext42                                                 text42       000000
__Htext43                                                 text43       000000
__Htext44                                                 text44       000000
__Htext45                                                 text45       000000
__Htext46                                                 text46       000000
__Htext47                                                 text47       000000
__Htext48                                                 text48       000000
__Htext49                                                 text49       000000
__Htext5                                                  text5        000000
__Htext50                                                 text50       000000
__Htext51                                                 text51       000000
__Htext52                                                 text52       000000
__Htext53                                                 text53       000000
__Htext54                                                 text54       000000
__Htext55                                                 text55       000000
__Htext56                                                 text56       000000
__Htext57                                                 text57       000000
__Htext58                                                 text58       000000
__Htext59                                                 text59       000000
__Htext6                                                  text6        000000
__Htext60                                                 text60       000000
__Htext61                                                 text61       000000
__Htext62                                                 text62       000000
__Htext63                                                 text63       000000
__Htext64                                                 text64       000000
__Htext65                                                 text65       000000
__Htext66                                                 text66       000000
__Htext67                                                 text67       000000
__Htext68                                                 text68       000000
__Htext69                                                 text69       000000
__Htext7                                                  text7        000000
__Htext70                                                 text70       000000
__Htext71                                                 text71       000000
__Htext72                                                 text72       000000
__Htext73                                                 text73       000000
__Htext74                                                 text74       000000
__Htext75                                                 text75       000000
__Htext76                                                 text76       000000
__Htext77                                                 text77       000000
__Htext78                                                 text78       000000
__Htext79                                                 text79       000000
__Htext8                                                  text8        000000
__Htext80                                                 text80       000000
__Htext81                                                 text81       000000
__Htext82                                                 text82       000000
__Htext83                                                 text83       000000
__Htext84                                                 text84       000000
__Htext85                                                 text85       000000
__Htext86                                                 text86       000000
__Htext87                                                 text87       000000
__Htext88                                                 text88       000000
__Htext89                                                 text89       000000
__Htext9                                                  text9        000000
__Htext90                                                 text90       000000
__Htext91                                                 text91       000000
__Htext92                                                 text92       000000
__Htext93                                                 text93       000000
__Htext94                                                 text94       000000
__Htext95                                                 text95       000000
__Htext96                                                 text96       000000
__Htext97                                                 text97       000000
__Htext98                                                 text98       000000
__Htext99                                                 text99       000000
__LRAM                                                    (abs)        000001
__L__absolute__                                           __absolute__ 000000
__Labs1                                                   abs1         000000
__Lbank10                                                 bank10       000000
__Lbank11                                                 bank11       000000
__Lbank12                                                 bank12       000000
__Lbank13                                                 bank13       000000
__Lbank14                                                 bank14       000000
__Lbank15                                                 bank15       000000
__Lbank16                                                 bank16       000000
__Lbank17                                                 bank17       000000
__Lbank18                                                 bank18       000000
__Lbank19                                                 bank19       000000
__Lbank20                                                 bank20       000000
__Lbank21                                                 bank21       000000
__Lbank22                                                 bank22       000000
__Lbank23                                                 bank23       000000
__Lbank24                                                 bank24       000000
__Lbank25                                                 bank25       000000
__Lbank26                                                 bank26       000000
__Lbank27                                                 bank27       000000
__Lbank28                                                 bank28       000000
__Lbank29                                                 bank29       000000
__Lbank30                                                 bank30       000000
__Lbank31                                                 bank31       000000
__Lbank32                                                 bank32       000000
__Lbank33                                                 bank33       000000
__Lbank34                                                 bank34       000000
__Lbank35                                                 bank35       000000
__Lbank36                                                 bank36       000000
__Lbank37                                                 bank37       000000
__Lbank38                                                 bank38       000000
__Lbank39                                                 bank39       000000
__Lbank40                                                 bank40       000000
__Lbank41                                                 bank41       000000
__Lbank42                                                 bank42       000000
__Lbank43                                                 bank43       000000
__Lbank44                                                 bank44       000000
__Lbank45                                                 bank45       000000
__Lbank46                                                 bank46       000000
__Lbank47                                                 bank47       000000
__Lbank48                                                 bank48       000000
__Lbank49                                                 bank49       000000
__Lbank5                                                  bank5        000000
__Lbank50                                                 bank50       000000
__Lbank51                                                 bank51       000000
__Lbank52                                                 bank52       000000
__Lbank53                                                 bank53       000000
__Lbank54                                                 bank54       000000
__Lbank6                                                  bank6        000000
__Lbank7                                                  bank7        000000
__Lbank8                                                  bank8        000000
__Lbank9                                                  bank9        000000
__Lbigbss                                                 bigbss       000000
__Lbigdata                                                bigdata      000000
__Lbigram                                                 bigram       000000
__Lbigsfr                                                 bigsfr       000000
__Lbss                                                    bss          000000
__LbssBANK5                                               bssBANK5     000000
__LbssBANK6                                               bssBANK6     000000
__LbssBANK7                                               bssBANK7     000000
__LbssBANK8                                               bssBANK8     000000
__LbssCOMRAM                                              bssCOMRAM    000000
__Lcinit                                                  cinit        000000
__Lclrtext                                                clrtext      000000
__Lcomram                                                 comram       000000
__Lconfig                                                 config       000000
__Lconst                                                  const        000000
__LcstackBANK5                                            cstackBANK5  000000
__LcstackBANK6                                            cstackBANK6  000000
__LcstackBANK7                                            cstackBANK7  000000
__LcstackCOMRAM                                           cstackCOMRAM 000000
__Ldata                                                   data         000000
__LdataBANK5                                              dataBANK5    000000
__LdataBANK7                                              dataBANK7    000000
__Leeprom_data                                            eeprom_data  000000
__Lfarbss                                                 farbss       000000
__Lfardata                                                fardata      000000
__Lheap                                                   heap         000000
__Libigdata                                               ibigdata     000000
__Lidata                                                  idata        000000
__LidataBANK5                                             idataBANK5   000000
__LidataBANK7                                             idataBANK7   000000
__Lidloc                                                  idloc        000000
__Lifardata                                               ifardata     000000
__Linit                                                   init         00001A
__Lintsave_regs                                           intsave_regs 000000
__Lirdata                                                 irdata       000000
__Livt0x8                                                 ivt0x8       000008
__Lmediumconst                                            mediumconst  00FD52
__LnvBANK6                                                nvBANK6      000000
__LnvBANK7                                                nvBANK7      000000
__LnvFARRAM                                               nvFARRAM     000000
__Lnvbit                                                  nvbit        000000
__Lnvrram                                                 nvrram       000000
__Lparam                                                  rparam       000000
__Lpowerup                                                powerup      000000
__Lram                                                    ram          000000
__Lramtop                                                 ramtop       004000
__Lrbit                                                   rbit         000000
__Lrbss                                                   rbss         000000
__Lrdata                                                  rdata        000000
__Lreset_vec                                              reset_vec    000000
__Lrparam                                                 rparam       000000
__Lsfr                                                    sfr          000000
__Lsmallconst                                             smallconst   000000
__Lspace_0                                                (abs)        000000
__Lspace_1                                                (abs)        000000
__Lspace_2                                                (abs)        000000
__Lspace_4                                                (abs)        000000
__Lstack                                                  stack        000000
__Lstruct                                                 struct       000000
__Ltemp                                                   temp         000000
__Ltext                                                   text         000000
__Ltext0                                                  text0        000000
__Ltext1                                                  text1        000000
__Ltext10                                                 text10       000000
__Ltext100                                                text100      000000
__Ltext101                                                text101      000000
__Ltext102                                                text102      000000
__Ltext103                                                text103      000000
__Ltext104                                                text104      000000
__Ltext105                                                text105      000000
__Ltext106                                                text106      000000
__Ltext107                                                text107      000000
__Ltext108                                                text108      000000
__Ltext109                                                text109      000000
__Ltext11                                                 text11       000000
__Ltext110                                                text110      000000
__Ltext111                                                text111      000000
__Ltext112                                                text112      000000
__Ltext113                                                text113      000000
__Ltext114                                                text114      000000
__Ltext115                                                text115      000000
__Ltext116                                                text116      000000
__Ltext117                                                text117      000000
__Ltext118                                                text118      000000
__Ltext119                                                text119      000000
__Ltext12                                                 text12       000000
__Ltext120                                                text120      000000
__Ltext121                                                text121      000000
__Ltext122                                                text122      000000
__Ltext123                                                text123      000000
__Ltext124                                                text124      000000
__Ltext125                                                text125      000000
__Ltext126                                                text126      000000
__Ltext127                                                text127      000000
__Ltext128                                                text128      000000
__Ltext129                                                text129      000000
__Ltext13                                                 text13       000000
__Ltext130                                                text130      000000
__Ltext131                                                text131      000000
__Ltext132                                                text132      000000
__Ltext133                                                text133      000000
__Ltext134                                                text134      000000
__Ltext135                                                text135      000000
__Ltext136                                                text136      000000
__Ltext137                                                text137      000000
__Ltext138                                                text138      000000
__Ltext139                                                text139      000000
__Ltext14                                                 text14       000000
__Ltext140                                                text140      000000
__Ltext141                                                text141      000000
__Ltext142                                                text142      000000
__Ltext143                                                text143      000000
__Ltext144                                                text144      000000
__Ltext145                                                text145      000000
__Ltext146                                                text146      000000
__Ltext147                                                text147      000000
__Ltext148                                                text148      000000
__Ltext149                                                text149      000000
__Ltext15                                                 text15       000000
__Ltext150                                                text150      000000
__Ltext151                                                text151      000000
__Ltext152                                                text152      000000
__Ltext153                                                text153      000000
__Ltext154                                                text154      000000
__Ltext155                                                text155      000000
__Ltext156                                                text156      000000
__Ltext157                                                text157      000000
__Ltext158                                                text158      000000
__Ltext159                                                text159      000000
__Ltext16                                                 text16       000000
__Ltext160                                                text160      000000
__Ltext161                                                text161      000000
__Ltext162                                                text162      000000
__Ltext163                                                text163      000000
__Ltext164                                                text164      000000
__Ltext165                                                text165      000000
__Ltext166                                                text166      000000
__Ltext167                                                text167      000000
__Ltext168                                                text168      000000
__Ltext169                                                text169      000000
__Ltext17                                                 text17       000000
__Ltext170                                                text170      000000
__Ltext171                                                text171      000000
__Ltext172                                                text172      000000
__Ltext173                                                text173      000000
__Ltext174                                                text174      000000
__Ltext175                                                text175      000000
__Ltext176                                                text176      000000
__Ltext177                                                text177      000000
__Ltext178                                                text178      000000
__Ltext179                                                text179      000000
__Ltext18                                                 text18       000000
__Ltext180                                                text180      000000
__Ltext181                                                text181      000000
__Ltext182                                                text182      000000
__Ltext183                                                text183      000000
__Ltext184                                                text184      000000
__Ltext185                                                text185      000000
__Ltext186                                                text186      000000
__Ltext187                                                text187      000000
__Ltext188                                                text188      000000
__Ltext189                                                text189      000000
__Ltext19                                                 text19       000000
__Ltext190                                                text190      000000
__Ltext191                                                text191      000000
__Ltext192                                                text192      000000
__Ltext193                                                text193      000000
__Ltext194                                                text194      000000
__Ltext195                                                text195      000000
__Ltext196                                                text196      000000
__Ltext197                                                text197      000000
__Ltext198                                                text198      000000
__Ltext199                                                text199      000000
__Ltext2                                                  text2        000000
__Ltext20                                                 text20       000000
__Ltext200                                                text200      000000
__Ltext201                                                text201      000000
__Ltext202                                                text202      000000
__Ltext203                                                text203      000000
__Ltext204                                                text204      000000
__Ltext205                                                text205      000000
__Ltext206                                                text206      000000
__Ltext207                                                text207      000000
__Ltext208                                                text208      000000
__Ltext209                                                text209      000000
__Ltext21                                                 text21       000000
__Ltext210                                                text210      000000
__Ltext211                                                text211      000000
__Ltext212                                                text212      000000
__Ltext213                                                text213      000000
__Ltext214                                                text214      000000
__Ltext215                                                text215      000000
__Ltext216                                                text216      000000
__Ltext217                                                text217      000000
__Ltext218                                                text218      000000
__Ltext219                                                text219      000000
__Ltext22                                                 text22       000000
__Ltext220                                                text220      000000
__Ltext221                                                text221      000000
__Ltext222                                                text222      000000
__Ltext223                                                text223      000000
__Ltext224                                                text224      000000
__Ltext225                                                text225      000000
__Ltext226                                                text226      000000
__Ltext227                                                text227      000000
__Ltext228                                                text228      000000
__Ltext229                                                text229      000000
__Ltext23                                                 text23       000000
__Ltext230                                                text230      000000
__Ltext231                                                text231      000000
__Ltext232                                                text232      000000
__Ltext233                                                text233      000000
__Ltext234                                                text234      000000
__Ltext235                                                text235      000000
__Ltext236                                                text236      000000
__Ltext237                                                text237      000000
__Ltext24                                                 text24       000000
__Ltext25                                                 text25       000000
__Ltext26                                                 text26       000000
__Ltext27                                                 text27       000000
__Ltext28                                                 text28       000000
__Ltext29                                                 text29       000000
__Ltext3                                                  text3        000000
__Ltext30                                                 text30       000000
__Ltext31                                                 text31       000000
__Ltext32                                                 text32       000000
__Ltext33                                                 text33       000000
__Ltext34                                                 text34       000000
__Ltext35                                                 text35       000000
__Ltext36                                                 text36       000000
__Ltext37                                                 text37       000000
__Ltext38                                                 text38       000000
__Ltext39                                                 text39       000000
__Ltext4                                                  text4        000000
__Ltext40                                                 text40       000000
__Ltext41                                                 text41       000000
__Ltext42                                                 text42       000000
__Ltext43                                                 text43       000000
__Ltext44                                                 text44       000000
__Ltext45                                                 text45       000000
__Ltext46                                                 text46       000000
__Ltext47                                                 text47       000000
__Ltext48                                                 text48       000000
__Ltext49                                                 text49       000000
__Ltext5                                                  text5        000000
__Ltext50                                                 text50       000000
__Ltext51                                                 text51       000000
__Ltext52                                                 text52       000000
__Ltext53                                                 text53       000000
__Ltext54                                                 text54       000000
__Ltext55                                                 text55       000000
__Ltext56                                                 text56       000000
__Ltext57                                                 text57       000000
__Ltext58                                                 text58       000000
__Ltext59                                                 text59       000000
__Ltext6                                                  text6        000000
__Ltext60                                                 text60       000000
__Ltext61                                                 text61       000000
__Ltext62                                                 text62       000000
__Ltext63                                                 text63       000000
__Ltext64                                                 text64       000000
__Ltext65                                                 text65       000000
__Ltext66                                                 text66       000000
__Ltext67                                                 text67       000000
__Ltext68                                                 text68       000000
__Ltext69                                                 text69       000000
__Ltext7                                                  text7        000000
__Ltext70                                                 text70       000000
__Ltext71                                                 text71       000000
__Ltext72                                                 text72       000000
__Ltext73                                                 text73       000000
__Ltext74                                                 text74       000000
__Ltext75                                                 text75       000000
__Ltext76                                                 text76       000000
__Ltext77                                                 text77       000000
__Ltext78                                                 text78       000000
__Ltext79                                                 text79       000000
__Ltext8                                                  text8        000000
__Ltext80                                                 text80       000000
__Ltext81                                                 text81       000000
__Ltext82                                                 text82       000000
__Ltext83                                                 text83       000000
__Ltext84                                                 text84       000000
__Ltext85                                                 text85       000000
__Ltext86                                                 text86       000000
__Ltext87                                                 text87       000000
__Ltext88                                                 text88       000000
__Ltext89                                                 text89       000000
__Ltext9                                                  text9        000000
__Ltext90                                                 text90       000000
__Ltext91                                                 text91       000000
__Ltext92                                                 text92       000000
__Ltext93                                                 text93       000000
__Ltext94                                                 text94       000000
__Ltext95                                                 text95       000000
__Ltext96                                                 text96       000000
__Ltext97                                                 text97       000000
__Ltext98                                                 text98       000000
__Ltext99                                                 text99       000000
__S0                                                      (abs)        01E15A
__S1                                                      (abs)        0008F0
__S4                                                      (abs)        000000
__S5                                                      (abs)        000000
___aodiv                                                  text66       019BB4
___aodiv@counter                                          cstackBANK6  000610
___aodiv@dividend                                         cstackBANK6  000600
___aodiv@divisor                                          cstackBANK6  000608
___aodiv@quotient                                         cstackBANK6  000612
___aodiv@sign                                             cstackBANK6  000611
___aomod                                                  text65       01A040
___aomod@counter                                          cstackBANK6  000610
___aomod@dividend                                         cstackBANK6  000600
___aomod@divisor                                          cstackBANK6  000608
___aomod@sign                                             cstackBANK6  000611
___awdiv                                                  text87       01B79C
___awdiv@counter                                          cstackBANK6  000604
___awdiv@dividend                                         cstackBANK6  000600
___awdiv@divisor                                          cstackBANK6  000602
___awdiv@quotient                                         cstackBANK6  000606
___awdiv@sign                                             cstackBANK6  000605
___awmod                                                  text86       01BCCC
___awmod@counter                                          cstackBANK6  000604
___awmod@dividend                                         cstackBANK6  000600
___awmod@divisor                                          cstackBANK6  000602
___awmod@sign                                             cstackBANK6  000605
___fladd                                                  text80       016012
___fladd@a                                                cstackBANK6  000604
___fladd@aexp                                             cstackBANK6  00060D
___fladd@b                                                cstackBANK6  000600
___fladd@bexp                                             cstackBANK6  00060E
___fladd@grs                                              cstackBANK6  00060F
___fladd@signs                                            cstackBANK6  00060C
___fldiv                                                  text85       0171CE
___fldiv@a                                                cstackBANK6  000604
___fldiv@aexp                                             cstackBANK6  000618
___fldiv@b                                                cstackBANK6  000600
___fldiv@bexp                                             cstackBANK6  000617
___fldiv@grs                                              cstackBANK6  000613
___fldiv@new_exp                                          cstackBANK6  000611
___fldiv@rem                                              cstackBANK6  00060C
___fldiv@sign                                             cstackBANK6  000610
___fleq                                                   text84       01BED8
___fleq@ff1                                               cstackBANK6  000600
___fleq@ff2                                               cstackBANK6  000604
___flge                                                   text83       01A788
___flge@ff1                                               cstackBANK6  000619
___flge@ff2                                               cstackBANK6  00061D
___flmul                                                  text82       016980
___flmul@a                                                cstackBANK6  000604
___flmul@aexp                                             cstackBANK6  00060D
___flmul@b                                                cstackBANK6  000600
___flmul@bexp                                             cstackBANK6  000612
___flmul@grs                                              cstackBANK6  00060E
___flmul@prod                                             cstackBANK6  000613
___flmul@sign                                             cstackBANK6  00060C
___flmul@temp                                             cstackBANK6  000617
___flneg                                                  text81       01D58E
___flneg@f1                                               cstackBANK6  000600
___flsub                                                  text79       01D280
___flsub@a                                                cstackBANK6  00061D
___flsub@b                                                cstackBANK6  000619
___fltol                                                  text78       01A680
___fltol@exp1                                             cstackBANK6  000609
___fltol@f1                                               cstackBANK6  000600
___fltol@sign1                                            cstackBANK6  000608
___fpclassifyf                                            text77       01AA98
___fpclassifyf@F465                                       bssBANK5     0005B5
___fpclassifyf@e                                          cstackBANK6  000608
___fpclassifyf@u                                          cstackBANK6  00060A
___fpclassifyf@x                                          cstackBANK6  000600
___heap_hi                                                (abs)        000000
___heap_lo                                                (abs)        000000
___inthi_sp                                               stack        000000
___inthi_stack_hi                                         stack        000000
___inthi_stack_lo                                         stack        000000
___intlo_sp                                               stack        000000
___intlo_stack_hi                                         stack        000000
___intlo_stack_lo                                         stack        000000
___lldiv                                                  text14       01C02E
___lldiv@counter                                          cstackBANK6  000618
___lldiv@dividend                                         cstackBANK6  00060C
___lldiv@divisor                                          cstackBANK6  000610
___lldiv@quotient                                         cstackBANK6  000614
___llmod                                                  text16       01C614
___llmod@counter                                          cstackBANK6  000608
___llmod@dividend                                         cstackBANK6  000600
___llmod@divisor                                          cstackBANK6  000604
___lmul                                                   text13       01CB72
___lmul@multiplicand                                      cstackBANK6  000604
___lmul@multiplier                                        cstackBANK6  000600
___lmul@product                                           cstackBANK6  000608
___lodiv                                                  text57       01AD92
___lodiv@counter                                          cstackBANK6  000618
___lodiv@dividend                                         cstackBANK6  000600
___lodiv@divisor                                          cstackBANK6  000608
___lodiv@quotient                                         cstackBANK6  000610
___lomod                                                  text56       01B1FE
___lomod@counter                                          cstackBANK6  000610
___lomod@dividend                                         cstackBANK6  000600
___lomod@divisor                                          cstackBANK6  000608
___lwdiv                                                  text88       01CA1A
___lwdiv@counter                                          cstackBANK6  000604
___lwdiv@dividend                                         cstackBANK6  000600
___lwdiv@divisor                                          cstackBANK6  000602
___lwdiv@quotient                                         cstackBANK6  000605
___param_bank                                             (abs)        000000
___rparam_used                                            (abs)        000001
___sp                                                     stack        000000
___stack_hi                                               stack        000000
___stack_lo                                               stack        000000
__accesstop                                               (abs)        000560
__activetblptr                                            (abs)        000003
__end_ofLCD_create_custom_char@F23609                     mediumconst  00FDB7
__end_ofLCD_create_custom_char@F23611                     mediumconst  00FDAF
__end_ofLCD_create_custom_char@F23613                     mediumconst  00FDA7
__end_of_ButtonHoldTimer                                  text170      01DDF8
__end_of_ButtonPressHandler                               text186      01AD92
__end_of_CAN1_BitRateConfiguration                        text49       01DFC6
__end_of_CAN1_Initialize                                  text42       01D00C
__end_of_CAN1_IsBusOff                                    text237      01DF30
__end_of_CAN1_IsTxErrorActive                             text235      01DD98
__end_of_CAN1_IsTxErrorPassive                            text236      01DF1A
__end_of_CAN1_OperationModeGet                            text48       01E088
__end_of_CAN1_OperationModeSet                            text47       01C3E0
__end_of_CAN1_RX_FIFO_Configuration                       text46       01DFB4
__end_of_CAN1_RX_FIFO_FilterMaskConfiguration             text45       01DC68
__end_of_CAN1_RX_FIFO_ResetInfo                           text44       01DB2E
__end_of_CAN1_Receive                                     text90       01A680
__end_of_CAN1_ReceivedMessageCountGet                     text89       01B606
__end_of_CAN1_TX_FIFO_Configuration                       text43       01DFA2
__end_of_CAN1_Transmit                                    text228      01C472
__end_of_DLC_BYTES                                        mediumconst  00FD9F
__end_of_FIFO                                             mediumconst  00FDB9
__end_of_GetDashboardData                                 text165      01DDE0
__end_of_GetRxFifoDepth                                   text94       01DC8A
__end_of_GetRxFifoStatus                                  text93       01DD46
__end_of_GetTxFifoStatus                                  text234      01DE28
__end_of_I2C1_CallbackReturnReset                         text139      01E14A
__end_of_I2C1_CallbackReturnStop                          text140      01E14E
__end_of_I2C1_ClearInterruptFlags                         text154      01D102
__end_of_I2C1_Close                                       text161      01DA82
__end_of_I2C1_DO_ADDRESS_NACK                             text109      01CB72
__end_of_I2C1_DO_BUS_COLLISION                            text108      01CA1A
__end_of_I2C1_DO_BUS_ERROR                                text107      01DFD6
__end_of_I2C1_DO_IDLE                                     text124      01E092
__end_of_I2C1_DO_RESET                                    text110      01E054
__end_of_I2C1_DO_RX                                       text120      01C2B4
__end_of_I2C1_DO_RX_ACK                                   text113      01E0DC
__end_of_I2C1_DO_RX_EMPTY                                 text118      01C21C
__end_of_I2C1_DO_RX_NACK_RESTART                          text111      01E0D4
__end_of_I2C1_DO_RX_NACK_STOP                             text112      01E062
__end_of_I2C1_DO_SEND_ADR_READ                            text123      01DA54
__end_of_I2C1_DO_SEND_ADR_WRITE                           text122      01DE54
__end_of_I2C1_DO_SEND_RESTART                             text115      01E142
__end_of_I2C1_DO_SEND_RESTART_READ                        text117      01E070
__end_of_I2C1_DO_SEND_RESTART_WRITE                       text116      01E146
__end_of_I2C1_DO_SEND_STOP                                text114      01DBFA
__end_of_I2C1_DO_TX                                       text121      01A56A
__end_of_I2C1_DO_TX_ACK                                   text125      01E0E4
__end_of_I2C1_DO_TX_EMPTY                                 text119      01C928
__end_of_I2C1_Initialize                                  text41       01DD0C
__end_of_I2C1_MasterClearCountFlag                        text160      01E128
__end_of_I2C1_MasterClearIrq                              text164      01E12E
__end_of_I2C1_MasterClearNackFlag                         text159      01E122
__end_of_I2C1_MasterClearStopFlag                         text158      01E11C
__end_of_I2C1_MasterClose                                 text163      01E0B0
__end_of_I2C1_MasterDisableIrq                            text162      01DD7E
__end_of_I2C1_MasterDisableRestart                        text137      01E116
__end_of_I2C1_MasterEnableRestart                         text136      01E110
__end_of_I2C1_MasterFsm                                   text106      01CB02
__end_of_I2C1_MasterGetCounter                            text128      01E0F2
__end_of_I2C1_MasterGetRxData                             text133      01E10A
__end_of_I2C1_MasterIsCountFlagSet                        text157      01DED8
__end_of_I2C1_MasterIsNack                                text127      01DE80
__end_of_I2C1_MasterIsNackFlagSet                         text156      01DEC2
__end_of_I2C1_MasterIsRxBufFull                           text132      01DE96
__end_of_I2C1_MasterIsStopFlagSet                         text155      01DEAC
__end_of_I2C1_MasterIsTxBufEmpty                          text126      01DE6A
__end_of_I2C1_MasterOpen                                  text101      01DCAC
__end_of_I2C1_MasterOperation                             text103      01D0B0
__end_of_I2C1_MasterResetBus                              text138      01E0A6
__end_of_I2C1_MasterSendAck                               text131      01E104
__end_of_I2C1_MasterSendNack                              text130      01E0FE
__end_of_I2C1_MasterSendTxData                            text134      01E09C
__end_of_I2C1_MasterSetCounter                            text135      01E07E
__end_of_I2C1_MasterStop                                  text129      01E0F8
__end_of_I2C1_MasterWaitForEvent                          text105      01CF0A
__end_of_I2C1_MasterWrite                                 text102      01E0CC
__end_of_I2C1_Open                                        text100      01C17A
__end_of_I2C1_Poller                                      text104      01DD2A
__end_of_I2C1_SetBuffer                                   text153      01DC46
__end_of_I2C1_SetBuffer_4bitmode                          text99       01BE2A
__end_of_I2C1_SetCallback                                 text152      01C7AA
__end_of_I2C1_SetDataCompleteCallback                     text151      01DD62
__end_of_INTERRUPT_Initialize                             text40       01E13E
__end_of_INTERRUPT_InterruptManager                       text166      01B922
__end_of_IOCAF0_DefaultInterruptHandler                   text187      01E15A
__end_of_IOCAF0_ISR                                       text185      01D786
__end_of_IOCAF0_SetInterruptHandler                       text38       01E038
__end_of_LCD_clear                                        text18       01DCCC
__end_of_LCD_clear_row                                    text20       01DCEC
__end_of_LCD_create_custom_char                           text97       01A442
__end_of_LCD_init                                         text95       01C8AA
__end_of_LCD_print                                        text22       01D6AC
__end_of_LCD_send_byte                                    text98       01DBD2
__end_of_LCD_send_nibble_cmd                              text96       01D424
__end_of_LCD_set_cursor                                   text21       01D464
__end_of_LCD_write_char                                   text17       01DF7E
__end_of_LCD_write_string                                 text24       01CC48
__end_of_OSCILLATOR_Initialize                            text39       01DF90
__end_of_PIN_MANAGER_IOC                                  text184      01DEEE
__end_of_PIN_MANAGER_Initialize                           text37       01C34A
__end_of_PMD_Initialize                                   text36       01DE3E
__end_of_ProcessCANMessages                               text50       017E9A
__end_of_ReadMessageFromFifo                              text91       018AC2
__end_of_RealTimeClockHandler                             text175      01C9A2
__end_of_SYSTEM_Initialize                                text25       01DB04
__end_of_SendReverseRequest                               text190      01C726
__end_of_TMR0_CallBack                                    text181      01DA26
__end_of_TMR0_DefaultInterruptHandler                     text182      01E158
__end_of_TMR0_ISR                                         text180      01D63C
__end_of_TMR0_Initialize                                  text34       01D238
__end_of_TMR0_SetInterruptHandler                         text35       01E02A
__end_of_TMR1_CallBack                                    text174      01D9F4
__end_of_TMR1_DefaultInterruptHandler                     text176      01E156
__end_of_TMR1_ISR                                         text172      01D602
__end_of_TMR1_Initialize                                  text32       01D1EE
__end_of_TMR1_SetInterruptHandler                         text33       01E01C
__end_of_TMR1_WriteTimer                                  text173      01DB82
__end_of_TMR3_CallBack                                    text169      01D9C2
__end_of_TMR3_DefaultInterruptHandler                     text171      01E154
__end_of_TMR3_ISR                                         text167      01DF6C
__end_of_TMR3_Initialize                                  text30       01D1A0
__end_of_TMR3_SetInterruptHandler                         text31       01E00E
__end_of_TMR3_StartTimer                                  text189      01E13A
__end_of_TMR3_StopTimer                                   text188      01E134
__end_of_TMR3_WriteTimer                                  text168      01DB58
__end_of_UART1_Initialize                                 text26       01CEB0
__end_of_UART1_SetErrorHandler                            text29       01E000
__end_of_UART1_SetFramingErrorHandler                     text28       01DFF2
__end_of_UART1_SetOverrunErrorHandler                     text27       01DFE4
__end_of_UART1_Write                                      text75       01DDC8
__end_of_ValidateTransmission                             text232      01B1FE
__end_of_WriteMessageToFifo                               text230      018CEC
__end_of___aodiv                                          text66       019D3C
__end_of___aomod                                          text65       01A1A4
__end_of___awdiv                                          text87       01B860
__end_of___awmod                                          text86       01BD7C
__end_of___fladd                                          text80       0164CA
__end_of___fldiv                                          text85       017560
__end_of___fleq                                           text84       01BF84
__end_of___flge                                           text83       01A88E
__end_of___flmul                                          text82       016DA8
__end_of___flneg                                          text81       01D5C8
__end_of___flsub                                          text79       01D2C8
__end_of___fltol                                          text78       01A788
__end_of___fpclassifyf                                    text77       01AB98
__end_of___lldiv                                          text14       01C0D4
__end_of___llmod                                          text16       01C69E
__end_of___lmul                                           text13       01CBDE
__end_of___lodiv                                          text57       01AE84
__end_of___lomod                                          text56       01B2D0
__end_of___lwdiv                                          text88       01CA90
__end_of__initialization                                  cinit        01C584
__end_of_abs                                              text64       01D750
__end_of_animation_isr                                    text183      01DAB0
__end_of_animation_stop                                   text19       01DF58
__end_of_atoa                                             text68       015AD8
__end_of_ctoa                                             text67       01B050
__end_of_display_tson_state                               text9        017BCA
__end_of_dtoa                                             text63       018128
__end_of_efgtoa                                           text61       014168
__end_of_floorf                                           text76       018F02
__end_of_fputc                                            text73       01B53A
__end_of_fputs                                            text72       01D280
__end_of_i2c1_fsmStateTable                               mediumconst  00FD8C
__end_of_isTxChannel                                      text229      01D51A
__end_of_labs                                             text62       01CF62
__end_of_main                                             text0        016012
__end_of_memcpy                                           text92       01D05E
__end_of_memset                                           text12       01D554
__end_of_otoa                                             text60       019856
__end_of_pad                                              text70       01BAA2
__end_of_power_get_average_kw                             text15       01A040
__end_of_power_get_bar                                    text11       01BB5E
__end_of_power_get_instant_kw                             text10       01D674
__end_of_power_sample_average                             text178      01BCCC
__end_of_power_sample_instant                             text8        01CD80
__end_of_printf                                           text51       01DBAA
__end_of_putch                                            text74       01E046
__end_of_rd1RegCompleteHandler                            text148      01D8F4
__end_of_rd1RegCompleteHandler@i2c1_master_example$F145   text144      01D858
__end_of_rd2RegCompleteHandler                            text147      01D8C0
__end_of_rd2RegCompleteHandler@i2c1_master_example$F156   text143      01D824
__end_of_rdBlkRegCompleteHandler                          text145      01D358
__end_of_rdBlkRegCompleteHandler@i2c1_master_example$F179 text141      01D310
__end_of_read_prec_or_width                               text59       01B46E
__end_of_seg_clear                                        text5        01DADA
__end_of_seg_display_digits                               text6        01C614
__end_of_seg_init                                         text3        01DDB0
__end_of_seg_patterns                                     mediumconst  00FD96
__end_of_seg_send_command                                 text4        01D71A
__end_of_seg_write_display                                text7        01CD1A
__end_of_stoa                                             text58       019A0A
__end_of_strcpy                                           text69       01D4A2
__end_of_strlen                                           text71       01D58E
__end_of_timer0_init                                      text2        01DF44
__end_of_utoa                                             text55       0192EC
__end_of_vcu_number                                       text1        01C82A
__end_of_vfpfcnvrt                                        text53       012564
__end_of_vfprintf                                         text52       01CDE6
__end_of_vsprintf                                         text23       01C500
__end_of_wr1RegCompleteHandler                            text149      01D928
__end_of_wr1RegCompleteHandler@i2c1_master_example$F162   text142      01D7F0
__end_of_wr2RegCompleteHandler                            text146      01D88C
__end_of_wr2RegCompleteHandler@i2c1_master_example$F168   text150      01D95C
__end_of_xtoa                                             text54       018886
__end_ofi2_CAN1_OperationModeGet                          text233      01E0C4
__end_ofi2_GetDashboardData                               text177      01DE10
__end_ofi2_UART1_Write                                    text215      01DF04
__end_ofi2___aodiv                                        text206      019EC2
__end_ofi2___aomod                                        text205      01A306
__end_ofi2___awdiv                                        text227      01B9E4
__end_ofi2___awmod                                        text226      01BED8
__end_ofi2___fladd                                        text220      016980
__end_ofi2___fldiv                                        text225      0178F0
__end_ofi2___fleq                                         text224      01C02E
__end_ofi2___flge                                         text223      01AA98
__end_ofi2___flmul                                        text222      0171CE
__end_ofi2___flneg                                        text221      01D6E4
__end_ofi2___flsub                                        text219      01D39E
__end_ofi2___fltol                                        text218      01A994
__end_ofi2___fpclassifyf                                  text217      01AC96
__end_ofi2___lmul                                         text179      01CCB2
__end_ofi2___lodiv                                        text197      01AF74
__end_ofi2___lomod                                        text196      01B3A0
__end_ofi2_abs                                            text204      01D990
__end_ofi2_atoa                                           text208      014E30
__end_ofi2_ctoa                                           text207      01B128
__end_ofi2_dtoa                                           text203      0183B4
__end_ofi2_efgtoa                                         text201      013372
__end_ofi2_floorf                                         text216      019114
__end_ofi2_fputc                                          text213      01B79C
__end_ofi2_fputs                                          text212      01D3E2
__end_ofi2_labs                                           text202      01CFB8
__end_ofi2_memcpy                                         text231      01D152
__end_ofi2_otoa                                           text200      01968E
__end_ofi2_pad                                            text210      01BC18
__end_ofi2_printf                                         text191      01DC22
__end_ofi2_putch                                          text214      01E0BA
__end_ofi2_read_prec_or_width                             text199      01B6D2
__end_ofi2_stoa                                           text198      019BB4
__end_ofi2_strcpy                                         text209      01D4DE
__end_ofi2_strlen                                         text211      01D7BC
__end_ofi2_utoa                                           text195      0194C2
__end_ofi2_vfpfcnvrt                                      text193      0112B6
__end_ofi2_vfprintf                                       text192      01CE4C
__end_ofi2_xtoa                                           text194      01861E
__initialization                                          cinit        01C500
__mediumconst                                             mediumconst  00FD52
__pbssBANK5                                               bssBANK5     0005A9
__pbssBANK6                                               bssBANK6     0006B8
__pbssBANK7                                               bssBANK7     000700
__pbssBANK8                                               bssBANK8     000800
__pbssCOMRAM                                              bssCOMRAM    00055C
__pcinit                                                  cinit        01C500
__pcstackBANK5                                            cstackBANK5  000560
__pcstackBANK6                                            cstackBANK6  000600
__pcstackBANK7                                            cstackBANK7  00076C
__pcstackCOMRAM                                           cstackCOMRAM 000501
__pdataBANK5                                              dataBANK5    0005EE
__pdataBANK7                                              dataBANK7    00078E
__pidataBANK5                                             idataBANK5   01E14E
__pidataBANK7                                             idataBANK7   01E0E4
__pivt0x8                                                 ivt0x8       000008
__pmediumconst                                            mediumconst  00FD52
__pnvBANK6                                                nvBANK6      0006F1
__pnvBANK7                                                nvBANK7      00077F
__ptext0                                                  text0        015AD8
__ptext1                                                  text1        01C7AA
__ptext10                                                 text10       01D63C
__ptext100                                                text100      01C0D4
__ptext101                                                text101      01DC8A
__ptext102                                                text102      01E0C4
__ptext103                                                text103      01D05E
__ptext104                                                text104      01DD0C
__ptext105                                                text105      01CEB0
__ptext106                                                text106      01CA90
__ptext107                                                text107      01DFC6
__ptext108                                                text108      01C9A2
__ptext109                                                text109      01CB02
__ptext11                                                 text11       01BAA2
__ptext110                                                text110      01E046
__ptext111                                                text111      01E0CC
__ptext112                                                text112      01E054
__ptext113                                                text113      01E0D4
__ptext114                                                text114      01DBD2
__ptext115                                                text115      01E13E
__ptext116                                                text116      01E142
__ptext117                                                text117      01E062
__ptext118                                                text118      01C17A
__ptext119                                                text119      01C8AA
__ptext12                                                 text12       01D51A
__ptext120                                                text120      01C21C
__ptext121                                                text121      01A442
__ptext122                                                text122      01DE3E
__ptext123                                                text123      01DA26
__ptext124                                                text124      01E088
__ptext125                                                text125      01E0DC
__ptext126                                                text126      01DE54
__ptext127                                                text127      01DE6A
__ptext128                                                text128      01E0EC
__ptext129                                                text129      01E0F2
__ptext13                                                 text13       01CB72
__ptext130                                                text130      01E0F8
__ptext131                                                text131      01E0FE
__ptext132                                                text132      01DE80
__ptext133                                                text133      01E104
__ptext134                                                text134      01E092
__ptext135                                                text135      01E070
__ptext136                                                text136      01E10A
__ptext137                                                text137      01E110
__ptext138                                                text138      01E09C
__ptext139                                                text139      01E146
__ptext14                                                 text14       01C02E
__ptext140                                                text140      01E14A
__ptext141                                                text141      01D2C8
__ptext142                                                text142      01D7BC
__ptext143                                                text143      01D7F0
__ptext144                                                text144      01D824
__ptext145                                                text145      01D310
__ptext146                                                text146      01D858
__ptext147                                                text147      01D88C
__ptext148                                                text148      01D8C0
__ptext149                                                text149      01D8F4
__ptext15                                                 text15       019EC2
__ptext150                                                text150      01D928
__ptext151                                                text151      01DD46
__ptext152                                                text152      01C726
__ptext153                                                text153      01DC22
__ptext154                                                text154      01D0B0
__ptext155                                                text155      01DE96
__ptext156                                                text156      01DEAC
__ptext157                                                text157      01DEC2
__ptext158                                                text158      01E116
__ptext159                                                text159      01E11C
__ptext16                                                 text16       01C614
__ptext160                                                text160      01E122
__ptext161                                                text161      01DA54
__ptext162                                                text162      01DD62
__ptext163                                                text163      01E0A6
__ptext164                                                text164      01E128
__ptext165                                                text165      01DDC8
__ptext166                                                text166      01B860
__ptext167                                                text167      01DF58
__ptext168                                                text168      01DB2E
__ptext169                                                text169      01D990
__ptext17                                                 text17       01DF6C
__ptext170                                                text170      01DDE0
__ptext171                                                text171      01E152
__ptext172                                                text172      01D5C8
__ptext173                                                text173      01DB58
__ptext174                                                text174      01D9C2
__ptext175                                                text175      01C928
__ptext176                                                text176      01E154
__ptext177                                                text177      01DDF8
__ptext178                                                text178      01BC18
__ptext179                                                text179      01CC48
__ptext18                                                 text18       01DCAC
__ptext180                                                text180      01D602
__ptext181                                                text181      01D9F4
__ptext182                                                text182      01E156
__ptext183                                                text183      01DA82
__ptext184                                                text184      01DED8
__ptext185                                                text185      01D750
__ptext186                                                text186      01AC96
__ptext187                                                text187      01E158
__ptext188                                                text188      01E12E
__ptext189                                                text189      01E134
__ptext19                                                 text19       01DF44
__ptext190                                                text190      01C69E
__ptext191                                                text191      01DBFA
__ptext192                                                text192      01CDE6
__ptext193                                                text193      010000
__ptext194                                                text194      0183B4
__ptext195                                                text195      0192EC
__ptext196                                                text196      01B2D0
__ptext197                                                text197      01AE84
__ptext198                                                text198      019A0A
__ptext199                                                text199      01B606
__ptext2                                                  text2        01DF30
__ptext20                                                 text20       01DCCC
__ptext200                                                text200      0194C2
__ptext201                                                text201      012564
__ptext202                                                text202      01CF62
__ptext203                                                text203      018128
__ptext204                                                text204      01D95C
__ptext205                                                text205      01A1A4
__ptext206                                                text206      019D3C
__ptext207                                                text207      01B050
__ptext208                                                text208      014168
__ptext209                                                text209      01D4A2
__ptext21                                                 text21       01D424
__ptext210                                                text210      01BB5E
__ptext211                                                text211      01D786
__ptext212                                                text212      01D39E
__ptext213                                                text213      01B6D2
__ptext214                                                text214      01E0B0
__ptext215                                                text215      01DEEE
__ptext216                                                text216      018F02
__ptext217                                                text217      01AB98
__ptext218                                                text218      01A88E
__ptext219                                                text219      01D358
__ptext22                                                 text22       01D674
__ptext220                                                text220      0164CA
__ptext221                                                text221      01D6AC
__ptext222                                                text222      016DA8
__ptext223                                                text223      01A994
__ptext224                                                text224      01BF84
__ptext225                                                text225      017560
__ptext226                                                text226      01BE2A
__ptext227                                                text227      01B922
__ptext228                                                text228      01C3E0
__ptext229                                                text229      01D4DE
__ptext23                                                 text23       01C472
__ptext230                                                text230      018AC2
__ptext231                                                text231      01D102
__ptext232                                                text232      01B128
__ptext233                                                text233      01E0BA
__ptext234                                                text234      01DE10
__ptext235                                                text235      01DD7E
__ptext236                                                text236      01DF04
__ptext237                                                text237      01DF1A
__ptext24                                                 text24       01CBDE
__ptext25                                                 text25       01DADA
__ptext26                                                 text26       01CE4C
__ptext27                                                 text27       01DFD6
__ptext28                                                 text28       01DFE4
__ptext29                                                 text29       01DFF2
__ptext3                                                  text3        01DD98
__ptext30                                                 text30       01D152
__ptext31                                                 text31       01E000
__ptext32                                                 text32       01D1A0
__ptext33                                                 text33       01E00E
__ptext34                                                 text34       01D1EE
__ptext35                                                 text35       01E01C
__ptext36                                                 text36       01DE28
__ptext37                                                 text37       01C2B4
__ptext38                                                 text38       01E02A
__ptext39                                                 text39       01DF7E
__ptext4                                                  text4        01D6E4
__ptext40                                                 text40       01E13A
__ptext41                                                 text41       01DCEC
__ptext42                                                 text42       01CFB8
__ptext43                                                 text43       01DF90
__ptext44                                                 text44       01DB04
__ptext45                                                 text45       01DC46
__ptext46                                                 text46       01DFA2
__ptext47                                                 text47       01C34A
__ptext48                                                 text48       01E07E
__ptext49                                                 text49       01DFB4
__ptext5                                                  text5        01DAB0
__ptext50                                                 text50       017BCA
__ptext51                                                 text51       01DB82
__ptext52                                                 text52       01CD80
__ptext53                                                 text53       0112B6
__ptext54                                                 text54       01861E
__ptext55                                                 text55       019114
__ptext56                                                 text56       01B1FE
__ptext57                                                 text57       01AD92
__ptext58                                                 text58       019856
__ptext59                                                 text59       01B3A0
__ptext6                                                  text6        01C58A
__ptext60                                                 text60       01968E
__ptext61                                                 text61       013372
__ptext62                                                 text62       01CF0A
__ptext63                                                 text63       017E9A
__ptext64                                                 text64       01D71A
__ptext65                                                 text65       01A040
__ptext66                                                 text66       019BB4
__ptext67                                                 text67       01AF74
__ptext68                                                 text68       014E30
__ptext69                                                 text69       01D464
__ptext7                                                  text7        01CCB2
__ptext70                                                 text70       01B9E4
__ptext71                                                 text71       01D554
__ptext72                                                 text72       01D238
__ptext73                                                 text73       01B46E
__ptext74                                                 text74       01E038
__ptext75                                                 text75       01DDB0
__ptext76                                                 text76       018CEC
__ptext77                                                 text77       01AA98
__ptext78                                                 text78       01A680
__ptext79                                                 text79       01D280
__ptext8                                                  text8        01CD1A
__ptext80                                                 text80       016012
__ptext81                                                 text81       01D58E
__ptext82                                                 text82       016980
__ptext83                                                 text83       01A788
__ptext84                                                 text84       01BED8
__ptext85                                                 text85       0171CE
__ptext86                                                 text86       01BCCC
__ptext87                                                 text87       01B79C
__ptext88                                                 text88       01CA1A
__ptext89                                                 text89       01B53A
__ptext9                                                  text9        0178F0
__ptext90                                                 text90       01A56A
__ptext91                                                 text91       018886
__ptext92                                                 text92       01D00C
__ptext93                                                 text93       01DD2A
__ptext94                                                 text94       01DC68
__ptext95                                                 text95       01C82A
__ptext96                                                 text96       01D3E2
__ptext97                                                 text97       01A306
__ptext98                                                 text98       01DBAA
__ptext99                                                 text99       01BD7C
__ramtop                                                  ramtop       004000
__smallconst                                              mediumconst  00FD52
_abs                                                      text64       01D71A
_animation_active                                         bssCOMRAM    00055F
_animation_isr                                            text183      01DA82
_animation_stop                                           text19       01DF44
_animation_tick                                           bssBANK5     0005D5
_atoa                                                     text68       014E30
_atoa$3916                                                cstackBANK6  00063A
_atoa$3924                                                cstackBANK6  00063C
_atoa$3925                                                cstackBANK6  00063E
_atoa$3926                                                cstackBANK6  000640
_buffer_filled                                            bssBANK5     0005D1
_buffer_index                                             bssBANK5     0005D2
_button_hold_ticks                                        bssBANK5     0005C7
_button_press_active                                      bssBANK5     0005D9
_ctoa                                                     text67       01AF74
_current_state                                            bssBANK5     0005DA
_dashboard_data                                           bssBANK6     0006E2
_data                                                     bssBANK5     0005DC
_dbuf                                                     bssBANK7     00070A
_direction                                                dataBANK5    0005F0
_display_buffer                                           bssBANK5     0005BD
_display_state                                            bssCOMRAM    00055E
_display_tson_state                                       text9        0178F0
_dtoa                                                     text63       017E9A
_dtoa$3939                                                cstackBANK6  00062D
_efgtoa                                                   text61       013372
_efgtoa$3969                                              cstackBANK6  000637
_efgtoa$3976                                              cstackBANK6  000639
_efgtoa$3977                                              cstackBANK6  00063B
_efgtoa$3978                                              cstackBANK6  00063D
_flags                                                    bssBANK6     0006F0
_floorf                                                   text76       018CEC
_fputc                                                    text73       01B46E
_fputs                                                    text72       01D238
_i2c1_fsmStateTable                                       mediumconst  00FD53
_instant_power_mw                                         bssBANK5     0005B9
_isTxChannel                                              text229      01D4DE
_isTxChannel$1632                                         cstackCOMRAM 000501
_labs                                                     text62       01CF0A
_main                                                     text0        015AD8
_memcpy                                                   text92       01D00C
_memset                                                   text12       01D51A
_nout                                                     bssCOMRAM    00055C
_nrMsg                                                    bssBANK5     0005D6
_otoa                                                     text60       01968E
_pad                                                      text70       01B9E4
_position                                                 bssBANK5     0005D4
_power_buffer                                             bssBANK8     000800
_power_get_average_kw                                     text15       019EC2
_power_get_average_kw$4608                                cstackBANK6  000629
_power_get_bar                                            text11       01BAA2
_power_get_instant_kw                                     text10       01D63C
_power_sample_average                                     text178      01BC18
_power_sample_average$5035                                cstackCOMRAM 000511
_power_sample_instant                                     text8        01CD1A
_power_sample_instant$4606                                cstackBANK6  000610
_prec                                                     bssBANK6     0006EE
_printf                                                   text51       01DB82
_putch                                                    text74       01E038
_rd1RegCompleteHandler                                    text148      01D8C0
_rd1RegCompleteHandler@i2c1_master_example$F145           text144      01D824
_rd2RegCompleteHandler                                    text147      01D88C
_rd2RegCompleteHandler@i2c1_master_example$F156           text143      01D7F0
_rdBlkRegCompleteHandler                                  text145      01D310
_rdBlkRegCompleteHandler@i2c1_master_example$F179         text141      01D2C8
_read_prec_or_width                                       text59       01B3A0
_reverse_active                                           bssBANK5     0005D8
_rxFifos                                                  dataBANK5    0005EE
_rxMsgData                                                bssBANK7     000764
_rx_buff                                                  bssBANK5     0005A9
_rx_msg                                                   bssBANK5     0005E6
_seg_clear                                                text5        01DAB0
_seg_display_digits                                       text6        01C58A
_seg_init                                                 text3        01DD98
_seg_patterns                                             mediumconst  00FD8C
_seg_send_command                                         text4        01D6E4
_seg_write_display                                        text7        01CCB2
_stoa                                                     text58       019856
_strcpy                                                   text69       01D464
_strlen                                                   text71       01D554
_timer0ReloadVal16bit                                     bssBANK5     0005CB
_timer0_init                                              text2        01DF30
_timer1ReloadVal                                          bssBANK5     0005CF
_timer3ReloadVal                                          bssBANK5     0005C5
_timer_counter                                            bssBANK5     0005D3
_tx_buff                                                  bssBANK5     0005ED
_tx_msg                                                   dataBANK7    00078E
_uart1RxLastError                                         bssBANK5     0005DB
_utoa                                                     text55       019114
_vcu_number                                               text1        01C7AA
_vfpfcnvrt                                                text53       0112B6
_vfprintf                                                 text52       01CD80
_vsprintf                                                 text23       01C472
_vsprintf$4148                                            cstackBANK6  000698
_width                                                    bssBANK6     0006EC
_wr1RegCompleteHandler                                    text149      01D8F4
_wr1RegCompleteHandler@i2c1_master_example$F162           text142      01D7BC
_wr2RegCompleteHandler                                    text146      01D858
_wr2RegCompleteHandler@i2c1_master_example$F168           text150      01D928
_xtoa                                                     text54       01861E
_xtoa$4010                                                cstackBANK6  00062F
abs@a                                                     cstackBANK6  000612
atoa@c                                                    cstackBANK6  000633
atoa@d                                                    cstackBANK6  00065D
atoa@e                                                    cstackBANK6  00064C
atoa@esign                                                cstackBANK6  000642
atoa@f                                                    cstackBANK6  00062F
atoa@fp                                                   cstackBANK6  00062D
atoa@g                                                    cstackBANK6  000658
atoa@h                                                    cstackBANK6  00064E
atoa@i                                                    cstackBANK6  000663
atoa@l                                                    cstackBANK6  000652
atoa@m                                                    cstackBANK6  000643
atoa@n                                                    cstackBANK6  000665
atoa@ne                                                   cstackBANK6  000645
atoa@ou                                                   cstackBANK6  000636
atoa@p                                                    cstackBANK6  000647
atoa@pp                                                   cstackBANK6  000649
atoa@sign                                                 cstackBANK6  00065C
atoa@t                                                    cstackBANK6  00064A
atoa@u                                                    cstackBANK6  00065F
atoa@w                                                    cstackBANK6  000656
ctoa@c                                                    cstackBANK6  00060D
ctoa@fp                                                   cstackBANK6  00060B
ctoa@l                                                    cstackBANK6  00060F
ctoa@w                                                    cstackBANK6  000611
display_tson_state@current_state                          cstackBANK6  0006B5
display_tson_state@data                                   cstackBANK6  0006B1
display_tson_state@last_state                             bssBANK5     0005D7
dtoa@d                                                    cstackBANK6  00061D
dtoa@fp                                                   cstackBANK6  00061B
dtoa@i                                                    cstackBANK6  000634
dtoa@p                                                    cstackBANK6  00062F
dtoa@s                                                    cstackBANK6  000633
dtoa@w                                                    cstackBANK6  000631
efgtoa@c                                                  cstackBANK6  000633
efgtoa@d                                                  cstackBANK6  000647
efgtoa@e                                                  cstackBANK6  000660
efgtoa@esign                                              cstackBANK6  00063F
efgtoa@f                                                  cstackBANK6  00062F
efgtoa@fp                                                 cstackBANK6  00062D
efgtoa@g                                                  cstackBANK6  00065C
efgtoa@h                                                  cstackBANK6  000653
efgtoa@i                                                  cstackBANK6  000662
efgtoa@l                                                  cstackBANK6  000657
efgtoa@m                                                  cstackBANK6  000645
efgtoa@mode                                               cstackBANK6  00064C
efgtoa@n                                                  cstackBANK6  000668
efgtoa@ne                                                 cstackBANK6  000643
efgtoa@nmode                                              cstackBANK6  00064B
efgtoa@ou                                                 cstackBANK6  00064D
efgtoa@p                                                  cstackBANK6  000649
efgtoa@pp                                                 cstackBANK6  000642
efgtoa@sign                                               cstackBANK6  00065B
efgtoa@t                                                  cstackBANK6  000640
efgtoa@u                                                  cstackBANK6  000664
efgtoa@w                                                  cstackBANK6  000651
end_of_initialization                                     cinit        01C584
floorf@F521                                               bssBANK5     0005B1
floorf@e                                                  cstackBANK6  000627
floorf@m                                                  cstackBANK6  000623
floorf@u                                                  cstackBANK6  000629
floorf@x                                                  cstackBANK6  000619
fputc@c                                                   cstackBANK6  000602
fputc@fp                                                  cstackBANK6  000604
fputs@c                                                   cstackBANK6  00060F
fputs@fp                                                  cstackBANK6  00060D
fputs@i                                                   cstackBANK6  000610
fputs@s                                                   cstackBANK6  00060B
i2GetDashboardData@data                                   cstackCOMRAM 000501
i2UART1_Write@txData                                      cstackCOMRAM 000501
i2_CAN1_OperationModeGet                                  text233      01E0BA
i2_GetDashboardData                                       text177      01DDF8
i2_UART1_Write                                            text215      01DEEE
i2___aodiv                                                text206      019D3C
i2___aodiv@counter                                        cstackCOMRAM 000511
i2___aodiv@dividend                                       cstackCOMRAM 000501
i2___aodiv@divisor                                        cstackCOMRAM 000509
i2___aodiv@quotient                                       cstackCOMRAM 000513
i2___aodiv@sign                                           cstackCOMRAM 000512
i2___aomod                                                text205      01A1A4
i2___aomod@counter                                        cstackCOMRAM 000511
i2___aomod@dividend                                       cstackCOMRAM 000501
i2___aomod@divisor                                        cstackCOMRAM 000509
i2___aomod@sign                                           cstackCOMRAM 000512
i2___awdiv                                                text227      01B922
i2___awdiv@counter                                        cstackCOMRAM 000505
i2___awdiv@dividend                                       cstackCOMRAM 000501
i2___awdiv@divisor                                        cstackCOMRAM 000503
i2___awdiv@quotient                                       cstackCOMRAM 000507
i2___awdiv@sign                                           cstackCOMRAM 000506
i2___awmod                                                text226      01BE2A
i2___awmod@counter                                        cstackCOMRAM 000505
i2___awmod@dividend                                       cstackCOMRAM 000501
i2___awmod@divisor                                        cstackCOMRAM 000503
i2___awmod@sign                                           cstackCOMRAM 000506
i2___fladd                                                text220      0164CA
i2___fladd@a                                              cstackCOMRAM 000505
i2___fladd@aexp                                           cstackCOMRAM 00050E
i2___fladd@b                                              cstackCOMRAM 000501
i2___fladd@bexp                                           cstackCOMRAM 00050F
i2___fladd@grs                                            cstackCOMRAM 000510
i2___fladd@signs                                          cstackCOMRAM 00050D
i2___fldiv                                                text225      017560
i2___fldiv@a                                              cstackCOMRAM 000505
i2___fldiv@aexp                                           cstackCOMRAM 000519
i2___fldiv@b                                              cstackCOMRAM 000501
i2___fldiv@bexp                                           cstackCOMRAM 000518
i2___fldiv@grs                                            cstackCOMRAM 000514
i2___fldiv@new_exp                                        cstackCOMRAM 000512
i2___fldiv@rem                                            cstackCOMRAM 00050D
i2___fldiv@sign                                           cstackCOMRAM 000511
i2___fleq                                                 text224      01BF84
i2___fleq@ff1                                             cstackCOMRAM 000501
i2___fleq@ff2                                             cstackCOMRAM 000505
i2___flge                                                 text223      01A994
i2___flge@ff1                                             cstackCOMRAM 00051A
i2___flge@ff2                                             cstackCOMRAM 00051E
i2___flmul                                                text222      016DA8
i2___flmul@a                                              cstackCOMRAM 000505
i2___flmul@aexp                                           cstackCOMRAM 00050E
i2___flmul@b                                              cstackCOMRAM 000501
i2___flmul@bexp                                           cstackCOMRAM 000513
i2___flmul@grs                                            cstackCOMRAM 00050F
i2___flmul@prod                                           cstackCOMRAM 000514
i2___flmul@sign                                           cstackCOMRAM 00050D
i2___flmul@temp                                           cstackCOMRAM 000518
i2___flneg                                                text221      01D6AC
i2___flneg@f1                                             cstackCOMRAM 000501
i2___flsub                                                text219      01D358
i2___flsub@a                                              cstackCOMRAM 00051E
i2___flsub@b                                              cstackCOMRAM 00051A
i2___fltol                                                text218      01A88E
i2___fltol@exp1                                           cstackCOMRAM 00050A
i2___fltol@f1                                             cstackCOMRAM 000501
i2___fltol@sign1                                          cstackCOMRAM 000509
i2___fpclassifyf                                          text217      01AB98
i2___fpclassifyf@e                                        cstackCOMRAM 000509
i2___fpclassifyf@u                                        cstackCOMRAM 00050B
i2___fpclassifyf@x                                        cstackCOMRAM 000501
i2___lmul                                                 text179      01CC48
i2___lmul@multiplicand                                    cstackCOMRAM 000505
i2___lmul@multiplier                                      cstackCOMRAM 000501
i2___lmul@product                                         cstackCOMRAM 000509
i2___lodiv                                                text197      01AE84
i2___lodiv@counter                                        cstackCOMRAM 000519
i2___lodiv@dividend                                       cstackCOMRAM 000501
i2___lodiv@divisor                                        cstackCOMRAM 000509
i2___lodiv@quotient                                       cstackCOMRAM 000511
i2___lomod                                                text196      01B2D0
i2___lomod@counter                                        cstackCOMRAM 000511
i2___lomod@dividend                                       cstackCOMRAM 000501
i2___lomod@divisor                                        cstackCOMRAM 000509
i2_abs                                                    text204      01D95C
i2_atoa                                                   text208      014168
i2_atoa$3916                                              cstackBANK5  000564
i2_atoa$3924                                              cstackBANK5  000566
i2_atoa$3925                                              cstackBANK5  000568
i2_atoa$3926                                              cstackBANK5  00056A
i2_ctoa                                                   text207      01B050
i2_dtoa                                                   text203      018128
i2_dtoa$3939                                              cstackCOMRAM 00052E
i2_efgtoa                                                 text201      012564
i2_efgtoa$3969                                            cstackBANK5  000560
i2_efgtoa$3976                                            cstackBANK5  000562
i2_efgtoa$3977                                            cstackBANK5  000564
i2_efgtoa$3978                                            cstackBANK5  000566
i2_floorf                                                 text216      018F02
i2_fputc                                                  text213      01B6D2
i2_fputs                                                  text212      01D39E
i2_labs                                                   text202      01CF62
i2_memcpy                                                 text231      01D102
i2_otoa                                                   text200      0194C2
i2_pad                                                    text210      01BB5E
i2_printf                                                 text191      01DBFA
i2_putch                                                  text214      01E0B0
i2_read_prec_or_width                                     text199      01B606
i2_stoa                                                   text198      019A0A
i2_strcpy                                                 text209      01D4A2
i2_strlen                                                 text211      01D786
i2_utoa                                                   text195      0192EC
i2_vfpfcnvrt                                              text193      010000
i2_vfprintf                                               text192      01CDE6
i2_xtoa                                                   text194      0183B4
i2_xtoa$4010                                              cstackCOMRAM 000530
i2abs@a                                                   cstackCOMRAM 000513
i2atoa@c                                                  cstackCOMRAM 000534
i2atoa@d                                                  cstackBANK5  000587
i2atoa@e                                                  cstackBANK5  000576
i2atoa@esign                                              cstackBANK5  00056C
i2atoa@f                                                  cstackCOMRAM 000530
i2atoa@fp                                                 cstackCOMRAM 00052E
i2atoa@g                                                  cstackBANK5  000582
i2atoa@h                                                  cstackBANK5  000578
i2atoa@i                                                  cstackBANK5  00058D
i2atoa@l                                                  cstackBANK5  00057C
i2atoa@m                                                  cstackBANK5  00056D
i2atoa@n                                                  cstackBANK5  00058F
i2atoa@ne                                                 cstackBANK5  00056F
i2atoa@ou                                                 cstackBANK5  000560
i2atoa@p                                                  cstackBANK5  000571
i2atoa@pp                                                 cstackBANK5  000573
i2atoa@sign                                               cstackBANK5  000586
i2atoa@t                                                  cstackBANK5  000574
i2atoa@u                                                  cstackBANK5  000589
i2atoa@w                                                  cstackBANK5  000580
i2ctoa@c                                                  cstackCOMRAM 00050E
i2ctoa@fp                                                 cstackCOMRAM 00050C
i2ctoa@l                                                  cstackCOMRAM 000510
i2ctoa@w                                                  cstackCOMRAM 000512
i2dtoa@d                                                  cstackCOMRAM 00051E
i2dtoa@fp                                                 cstackCOMRAM 00051C
i2dtoa@i                                                  cstackCOMRAM 000535
i2dtoa@p                                                  cstackCOMRAM 000530
i2dtoa@s                                                  cstackCOMRAM 000534
i2dtoa@w                                                  cstackCOMRAM 000532
i2efgtoa@c                                                cstackCOMRAM 000534
i2efgtoa@d                                                cstackBANK5  000570
i2efgtoa@e                                                cstackBANK5  000589
i2efgtoa@esign                                            cstackBANK5  000568
i2efgtoa@f                                                cstackCOMRAM 000530
i2efgtoa@fp                                               cstackCOMRAM 00052E
i2efgtoa@g                                                cstackBANK5  000585
i2efgtoa@h                                                cstackBANK5  00057C
i2efgtoa@i                                                cstackBANK5  00058B
i2efgtoa@l                                                cstackBANK5  000580
i2efgtoa@m                                                cstackBANK5  00056E
i2efgtoa@mode                                             cstackBANK5  000575
i2efgtoa@n                                                cstackBANK5  000591
i2efgtoa@ne                                               cstackBANK5  00056C
i2efgtoa@nmode                                            cstackBANK5  000574
i2efgtoa@ou                                               cstackBANK5  000576
i2efgtoa@p                                                cstackBANK5  000572
i2efgtoa@pp                                               cstackBANK5  00056B
i2efgtoa@sign                                             cstackBANK5  000584
i2efgtoa@t                                                cstackBANK5  000569
i2efgtoa@u                                                cstackBANK5  00058D
i2efgtoa@w                                                cstackBANK5  00057A
i2floorf@e                                                cstackCOMRAM 000528
i2floorf@m                                                cstackCOMRAM 000524
i2floorf@u                                                cstackCOMRAM 00052A
i2floorf@x                                                cstackCOMRAM 00051A
i2fputc@c                                                 cstackCOMRAM 000503
i2fputc@fp                                                cstackCOMRAM 000505
i2fputs@c                                                 cstackCOMRAM 000510
i2fputs@fp                                                cstackCOMRAM 00050E
i2fputs@i                                                 cstackCOMRAM 000511
i2fputs@s                                                 cstackCOMRAM 00050C
i2labs@a                                                  cstackCOMRAM 000501
i2memcpy@d                                                cstackCOMRAM 000508
i2memcpy@d1                                               cstackCOMRAM 000501
i2memcpy@n                                                cstackCOMRAM 000505
i2memcpy@s                                                cstackCOMRAM 00050A
i2memcpy@s1                                               cstackCOMRAM 000503
i2memcpy@tmp                                              cstackCOMRAM 000507
i2otoa@d                                                  cstackCOMRAM 00051E
i2otoa@fp                                                 cstackCOMRAM 00051C
i2otoa@i                                                  cstackCOMRAM 000533
i2otoa@p                                                  cstackCOMRAM 00052E
i2otoa@t                                                  cstackCOMRAM 000530
i2otoa@w                                                  cstackCOMRAM 000531
i2pad@buf                                                 cstackCOMRAM 000515
i2pad@fp                                                  cstackCOMRAM 000513
i2pad@i                                                   cstackCOMRAM 00051A
i2pad@p                                                   cstackCOMRAM 000517
i2printf@ap                                               cstackCOMRAM 000556
i2printf@fmt                                              cstackBANK5  00059F
i2putch@txData                                            cstackCOMRAM 000502
i2read_prec_or_width@ap                                   cstackCOMRAM 000503
i2read_prec_or_width@c                                    cstackCOMRAM 000507
i2read_prec_or_width@fmt                                  cstackCOMRAM 000501
i2read_prec_or_width@n                                    cstackCOMRAM 000508
i2stoa@cp                                                 cstackCOMRAM 000516
i2stoa@fp                                                 cstackCOMRAM 00050C
i2stoa@l                                                  cstackCOMRAM 000518
i2stoa@p                                                  cstackCOMRAM 000512
i2stoa@s                                                  cstackCOMRAM 00050E
i2stoa@w                                                  cstackCOMRAM 000514
i2strcpy@d                                                cstackCOMRAM 000505
i2strcpy@dest                                             cstackCOMRAM 000501
i2strcpy@src                                              cstackCOMRAM 000503
i2strlen@a                                                cstackCOMRAM 000503
i2strlen@s                                                cstackCOMRAM 000501
i2utoa@d                                                  cstackCOMRAM 00051E
i2utoa@fp                                                 cstackCOMRAM 00051C
i2utoa@i                                                  cstackCOMRAM 000532
i2utoa@p                                                  cstackCOMRAM 00052E
i2utoa@w                                                  cstackCOMRAM 000530
i2vfpfcnvrt@ap                                            cstackBANK5  000597
i2vfpfcnvrt@c                                             cstackCOMRAM 000549
i2vfpfcnvrt@convarg                                       cstackCOMRAM 00054A
i2vfpfcnvrt@cp                                            cstackCOMRAM 000552
i2vfpfcnvrt@done                                          cstackCOMRAM 000548
i2vfpfcnvrt@fmt                                           cstackBANK5  000595
i2vfpfcnvrt@fp                                            cstackBANK5  000593
i2vfprintf@ap                                             cstackBANK5  00059D
i2vfprintf@cfmt                                           cstackCOMRAM 000554
i2vfprintf@fmt                                            cstackBANK5  00059B
i2vfprintf@fp                                             cstackBANK5  000599
i2xtoa@a                                                  cstackCOMRAM 00052F
i2xtoa@c                                                  cstackCOMRAM 000537
i2xtoa@d                                                  cstackCOMRAM 00051E
i2xtoa@d_nonzero                                          cstackCOMRAM 000534
i2xtoa@fp                                                 cstackCOMRAM 00051C
i2xtoa@i                                                  cstackCOMRAM 000538
i2xtoa@p                                                  cstackCOMRAM 000532
i2xtoa@w                                                  cstackCOMRAM 000535
i2xtoa@x                                                  cstackCOMRAM 000526
intlevel0                                                 text         000000
intlevel1                                                 text         000000
intlevel2                                                 text         000000
intlevel3                                                 text         000000
isTxChannel@channel                                       cstackCOMRAM 000502
isa$std                                                   (abs)        000001
isa$xinst                                                 (abs)        000000
ivt0x8_base                                               ivt0x8       000008
labs@a                                                    cstackBANK6  000600
memcpy@d                                                  cstackBANK6  000607
memcpy@d1                                                 cstackBANK6  000600
memcpy@n                                                  cstackBANK6  000604
memcpy@s                                                  cstackBANK6  000609
memcpy@s1                                                 cstackBANK6  000602
memcpy@tmp                                                cstackBANK6  000606
memset@c                                                  cstackBANK6  000602
memset@dest                                               cstackBANK6  000600
memset@n                                                  cstackBANK6  000604
memset@p                                                  cstackBANK6  000606
otoa@d                                                    cstackBANK6  00061D
otoa@fp                                                   cstackBANK6  00061B
otoa@i                                                    cstackBANK6  000632
otoa@p                                                    cstackBANK6  00062D
otoa@t                                                    cstackBANK6  00062F
otoa@w                                                    cstackBANK6  000630
pad@buf                                                   cstackBANK6  000614
pad@fp                                                    cstackBANK6  000612
pad@i                                                     cstackBANK6  000619
pad@p                                                     cstackBANK6  000616
power_get_average_kw@i                                    cstackBANK6  000639
power_get_average_kw@sum                                  cstackBANK6  000631
power_get_bar@bar                                         bssBANK7     00075A
power_get_bar@filled                                      cstackBANK6  00061C
power_get_bar@i                                           cstackBANK6  00061D
power_sample_average@current_da                           cstackCOMRAM 00050F
power_sample_average@voltage_dv                           cstackCOMRAM 00050D
power_sample_instant@current_da                           cstackBANK6  00060E
power_sample_instant@voltage_dv                           cstackBANK6  00060C
printf@ap                                                 cstackBANK6  00069C
printf@fmt                                                cstackBANK6  000692
putch@txData                                              cstackBANK6  000601
rd1RegCompleteHandler@i2c1_master_example$F145@ptr        cstackBANK6  00060B
rd1RegCompleteHandler@p                                   cstackBANK6  00060B
rd2RegCompleteHandler@i2c1_master_example$F156@ptr        cstackBANK6  00060B
rd2RegCompleteHandler@p                                   cstackBANK6  00060B
rdBlkRegCompleteHandler@i2c1_master_example$F179@ptr      cstackBANK6  00060B
rdBlkRegCompleteHandler@p                                 cstackBANK6  00060B
read_prec_or_width@ap                                     cstackBANK6  000602
read_prec_or_width@c                                      cstackBANK6  000606
read_prec_or_width@fmt                                    cstackBANK6  000600
read_prec_or_width@n                                      cstackBANK6  000607
seg_clear@i                                               cstackBANK6  00061D
seg_display_digits@tens                                   cstackBANK6  00061D
seg_display_digits@units                                  cstackBANK6  00061E
seg_display_digits@value                                  cstackBANK6  00061F
seg_send_command@buffer                                   cstackBANK6  000616
seg_send_command@command                                  cstackBANK6  000615
seg_write_display@i                                       cstackBANK6  00061C
seg_write_display@tx_buffer                               cstackBANK6  000617
stackhi                                                   (abs)        000000
stacklo                                                   (abs)        000000
start                                                     init         00001A
start_initialization                                      cinit        01C500
stoa@cp                                                   cstackBANK6  000615
stoa@fp                                                   cstackBANK6  00060B
stoa@l                                                    cstackBANK6  000617
stoa@p                                                    cstackBANK6  000611
stoa@s                                                    cstackBANK6  00060D
stoa@w                                                    cstackBANK6  000613
strcpy@d                                                  cstackBANK6  000604
strcpy@dest                                               cstackBANK6  000600
strcpy@src                                                cstackBANK6  000602
strlen@a                                                  cstackBANK6  000602
strlen@s                                                  cstackBANK6  000600
utoa@d                                                    cstackBANK6  00061D
utoa@fp                                                   cstackBANK6  00061B
utoa@i                                                    cstackBANK6  000631
utoa@p                                                    cstackBANK6  00062D
utoa@w                                                    cstackBANK6  00062F
vcu_number@data                                           cstackBANK6  0006B1
vfpfcnvrt@ap                                              cstackBANK6  00066E
vfpfcnvrt@c                                               cstackBANK6  00067F
vfpfcnvrt@convarg                                         cstackBANK6  000680
vfpfcnvrt@cp                                              cstackBANK6  000688
vfpfcnvrt@done                                            cstackBANK6  00067E
vfpfcnvrt@fmt                                             cstackBANK6  00066C
vfpfcnvrt@fp                                              cstackBANK6  00066A
vfprintf@ap                                               cstackBANK6  00068E
vfprintf@cfmt                                             cstackBANK6  000690
vfprintf@fmt                                              cstackBANK6  00068C
vfprintf@fp                                               cstackBANK6  00068A
vsprintf@ap                                               cstackBANK6  000696
vsprintf@cnt                                              cstackBANK6  00069A
vsprintf@f                                                cstackBANK6  00069C
vsprintf@fmt                                              cstackBANK6  000694
vsprintf@s                                                cstackBANK6  000692
wr1RegCompleteHandler@i2c1_master_example$F162@ptr        cstackBANK6  00060B
wr1RegCompleteHandler@p                                   cstackBANK6  00060B
wr2RegCompleteHandler@i2c1_master_example$F168@ptr        cstackBANK6  00060B
wr2RegCompleteHandler@p                                   cstackBANK6  00060B
xtoa@a                                                    cstackBANK6  00062E
xtoa@c                                                    cstackBANK6  000636
xtoa@d                                                    cstackBANK6  00061D
xtoa@d_nonzero                                            cstackBANK6  000633
xtoa@fp                                                   cstackBANK6  00061B
xtoa@i                                                    cstackBANK6  000637
xtoa@p                                                    cstackBANK6  000631
xtoa@w                                                    cstackBANK6  000634
xtoa@x                                                    cstackBANK6  000625


MODULE INFORMATION

Module		Function		Class		Link	Load	Size
animation.c
		_animation_isr 		CODE           	1DA82	0000	46
		_timer0_init   		CODE           	1DF30	0000	20
		_animation_stop		CODE           	1DF44	0000	20

animation.c estimated size: 86

mcc_generated_files/can1.c
		_ReadMessageFromFifo		CODE           	18886	0000	572
		_ValidateTransmission		CODE           	1B128	0000	214
		_CAN1_IsTxErrorPassive		CODE           	1DF04	0000	22
		_CAN1_BitRateConfiguration		CODE           	1DFB4	0000	18
		_CAN1_TX_FIFO_Configuration		CODE           	1DF90	0000	18
		_GetRxFifoDepth		CODE           	1DC68	0000	34
		_CAN1_OperationModeGet		CODE           	1E07E	0000	10
		_CAN1_IsBusOff 		CODE           	1DF1A	0000	22
		_CAN1_Initialize		CODE           	1CFB8	0000	84
		_CAN1_Transmit 		CODE           	1C3E0	0000	146
		_CAN1_RX_FIFO_FilterMaskConfiguration		CODE           	1DC46	0000	34
		_CAN1_RX_FIFO_Configuration		CODE           	1DFA2	0000	18
		_CAN1_IsTxErrorActive		CODE           	1DD7E	0000	26
		_GetRxFifoStatus		CODE           	1DD2A	0000	28
		_CAN1_ReceivedMessageCountGet		CODE           	1B53A	0000	204
		_isTxChannel   		CODE           	1D4DE	0000	60
		_GetTxFifoStatus		CODE           	1DE10	0000	24
		_WriteMessageToFifo		CODE           	18AC2	0000	554
		_CAN1_Receive  		CODE           	1A56A	0000	278
		_CAN1_RX_FIFO_ResetInfo		CODE           	1DB04	0000	42
		_CAN1_OperationModeSet		CODE           	1C34A	0000	150

mcc_generated_files/can1.c estimated size: 2558

C:\Program Files\Microchip\xc8\v3.00\pic\sources\c99\common\flge.c
		___flge        		CODE           	1A788	0000	262

C:\Program Files\Microchip\xc8\v3.00\pic\sources\c99\common\flge.c estimated size: 262

mcc_generated_files/examples/i2c1_master_example.c
		_rdBlkRegCompleteHandler@i2c1_master_example$F179		CODE           	1D2C8	0000	72
		_rd1RegCompleteHandler@i2c1_master_example$F145		CODE           	1D824	0000	52
		_rd2RegCompleteHandler@i2c1_master_example$F156		CODE           	1D7F0	0000	52
		_wr1RegCompleteHandler@i2c1_master_example$F162		CODE           	1D7BC	0000	52
		_wr2RegCompleteHandler@i2c1_master_example$F168		CODE           	1D928	0000	52

mcc_generated_files/examples/i2c1_master_example.c estimated size: 280

C:\Program Files\Microchip\xc8\v3.00\pic\sources\c99\common\abs.c
		_abs           		CODE           	1D71A	0000	54

C:\Program Files\Microchip\xc8\v3.00\pic\sources\c99\common\abs.c estimated size: 54

C:\Program Files\Microchip\xc8\v3.00\pic\sources\c99\common\nf_fputc.c
		_fputc         		CODE           	1B46E	0000	204

C:\Program Files\Microchip\xc8\v3.00\pic\sources\c99\common\nf_fputc.c estimated size: 204

CAN_handler.c
		_SendReverseRequest		CODE           	1C69E	0000	136
		_ProcessCANMessages		CODE           	17BCA	0000	720
		_GetDashboardData		CODE           	1DDC8	0000	24

CAN_handler.c estimated size: 880

mcc_generated_files/i2c1_master.c
		_I2C1_DO_SEND_RESTART		CODE           	1E13E	0000	4
		_I2C1_MasterIsNackFlagSet		CODE           	1DEAC	0000	22
		_I2C1_DO_RX_EMPTY		CODE           	1C17A	0000	162
		_I2C1_DO_TX_EMPTY		CODE           	1C8AA	0000	126
		_I2C1_DO_SEND_RESTART_READ		CODE           	1E062	0000	14
		_I2C1_MasterClearNackFlag		CODE           	1E11C	0000	6
		_I2C1_CallbackReturnStop		CODE           	1E14A	0000	4
		_I2C1_DO_RX    		CODE           	1C21C	0000	152
		_I2C1_DO_TX    		CODE           	1A442	0000	296
		_I2C1_DO_IDLE  		CODE           	1E088	0000	10
		_I2C1_MasterOpen		CODE           	1DC8A	0000	34
		_I2C1_MasterSendTxData		CODE           	1E092	0000	10
		_I2C1_MasterStop		CODE           	1E0F2	0000	6
		_I2C1_MasterIsStopFlagSet		CODE           	1DE96	0000	22
		_I2C1_CallbackReturnReset		CODE           	1E146	0000	4
		_I2C1_DO_RESET 		CODE           	1E046	0000	14
		_I2C1_Poller   		CODE           	1DD0C	0000	30
		_I2C1_DO_RX_ACK		CODE           	1E0D4	0000	8
		_I2C1_DO_TX_ACK		CODE           	1E0DC	0000	8
		_I2C1_MasterWaitForEvent		CODE           	1CEB0	0000	90
		_I2C1_MasterSendNack		CODE           	1E0F8	0000	6
		_I2C1_DO_RX_NACK_RESTART		CODE           	1E0CC	0000	8
		_I2C1_MasterDisableIrq		CODE           	1DD62	0000	28
		_I2C1_ClearInterruptFlags		CODE           	1D0B0	0000	82
		_I2C1_MasterOperation		CODE           	1D05E	0000	82
		_I2C1_MasterClearStopFlag		CODE           	1E116	0000	6
		_I2C1_SetCallback		CODE           	1C726	0000	132
		_I2C1_MasterEnableRestart		CODE           	1E10A	0000	6
		_I2C1_MasterGetCounter		CODE           	1E0EC	0000	6
		_I2C1_MasterSetCounter		CODE           	1E070	0000	14
		_I2C1_Open     		CODE           	1C0D4	0000	166
		_I2C1_DO_ADDRESS_NACK		CODE           	1CB02	0000	112
		_I2C1_MasterDisableRestart		CODE           	1E110	0000	6
		_I2C1_MasterClearCountFlag		CODE           	1E122	0000	6
		_I2C1_SetBuffer		CODE           	1DC22	0000	36
		_I2C1_DO_SEND_RESTART_WRITE		CODE           	1E142	0000	4
		_I2C1_MasterIsTxBufEmpty		CODE           	1DE54	0000	22
		_I2C1_MasterClose		CODE           	1E0A6	0000	10
		_I2C1_MasterWrite		CODE           	1E0C4	0000	8
		_I2C1_Initialize		CODE           	1DCEC	0000	32
		_I2C1_Close    		CODE           	1DA54	0000	46
		_I2C1_MasterIsRxBufFull		CODE           	1DE80	0000	22
		_I2C1_MasterIsNack		CODE           	1DE6A	0000	22
		_I2C1_DO_SEND_ADR_WRITE		CODE           	1DE3E	0000	22
		_I2C1_MasterClearIrq		CODE           	1E128	0000	6
		_I2C1_SetDataCompleteCallback		CODE           	1DD46	0000	28
		_I2C1_DO_SEND_STOP		CODE           	1DBD2	0000	40
		_I2C1_DO_BUS_COLLISION		CODE           	1C9A2	0000	120
		_I2C1_DO_BUS_ERROR		CODE           	1DFC6	0000	16
		_I2C1_MasterSendAck		CODE           	1E0FE	0000	6
		_I2C1_MasterFsm		CODE           	1CA90	0000	114
		_I2C1_MasterGetRxData		CODE           	1E104	0000	6
		_I2C1_MasterResetBus		CODE           	1E09C	0000	10
		_I2C1_MasterIsCountFlagSet		CODE           	1DEC2	0000	22
		_I2C1_DO_SEND_ADR_READ		CODE           	1DA26	0000	46
		_I2C1_DO_RX_NACK_STOP		CODE           	1E054	0000	14

mcc_generated_files/i2c1_master.c estimated size: 2334

C:\Program Files\Microchip\xc8\v3.00\pic\sources\c99\common\memcpy.c
		_memcpy        		CODE           	1D00C	0000	82

C:\Program Files\Microchip\xc8\v3.00\pic\sources\c99\common\memcpy.c estimated size: 82

mcc_generated_files/interrupt_manager.c
		_INTERRUPT_Initialize		CODE           	1E13A	0000	4
		_INTERRUPT_InterruptManager		CODE           	1B860	0000	194

mcc_generated_files/interrupt_manager.c estimated size: 198

C:\Program Files\Microchip\xc8\v3.00\pic\sources\c99\common\flneg.c
		___flneg       		CODE           	1D58E	0000	58

C:\Program Files\Microchip\xc8\v3.00\pic\sources\c99\common\flneg.c estimated size: 58

mcc_generated_files/tmr0.c
		_TMR0_SetInterruptHandler		CODE           	1E01C	0000	14
		_TMR0_DefaultInterruptHandler		CODE           	1E156	0000	2
		_TMR0_CallBack 		CODE           	1D9F4	0000	50
		_TMR0_ISR      		CODE           	1D602	0000	58
		_TMR0_Initialize		CODE           	1D1EE	0000	74

mcc_generated_files/tmr0.c estimated size: 198

C:\Program Files\Microchip\xc8\v3.00\pic\sources\c99\common\__fpclassifyf.c
		___fpclassifyf 		CODE           	1AA98	0000	256

C:\Program Files\Microchip\xc8\v3.00\pic\sources\c99\common\__fpclassifyf.c estimated size: 256

mcc_generated_files/pin_manager.c
		_PIN_MANAGER_Initialize		CODE           	1C2B4	0000	150
		_IOCAF0_SetInterruptHandler		CODE           	1E02A	0000	14
		_PIN_MANAGER_IOC		CODE           	1DED8	0000	22
		_IOCAF0_DefaultInterruptHandler		CODE           	1E158	0000	2
		_IOCAF0_ISR    		CODE           	1D750	0000	54

mcc_generated_files/pin_manager.c estimated size: 242

7seg.c
		_seg_init      		CODE           	1DD98	0000	24
		_seg_display_digits		CODE           	1C58A	0000	138
		_seg_send_command		CODE           	1D6E4	0000	54
		_seg_write_display		CODE           	1CCB2	0000	104
		_seg_clear     		CODE           	1DAB0	0000	42

7seg.c estimated size: 362

C:\Program Files\Microchip\xc8\v3.00\pic\sources\c99\common\lomod.c
		___lomod       		CODE           	1B1FE	0000	210

C:\Program Files\Microchip\xc8\v3.00\pic\sources\c99\common\lomod.c estimated size: 210

C:\Program Files\Microchip\xc8\v3.00\pic\sources\c99\common\aomod.c
		___aomod       		CODE           	1A040	0000	356

C:\Program Files\Microchip\xc8\v3.00\pic\sources\c99\common\aomod.c estimated size: 356

C:\Program Files\Microchip\xc8\v3.00\pic\sources\c99\common\printf.c
		_printf        		CODE           	1DB82	0000	40

C:\Program Files\Microchip\xc8\v3.00\pic\sources\c99\common\printf.c estimated size: 40

mcc_generated_files/drivers/i2c_simple_master.c
		_wr1RegCompleteHandler		CODE           	1D8F4	0000	52
		_wr2RegCompleteHandler		CODE           	1D858	0000	52
		_rdBlkRegCompleteHandler		CODE           	1D310	0000	72
		_rd1RegCompleteHandler		CODE           	1D8C0	0000	52
		_rd2RegCompleteHandler		CODE           	1D88C	0000	52

mcc_generated_files/drivers/i2c_simple_master.c estimated size: 280

C:\Program Files\Microchip\xc8\v3.00\pic\sources\c99\common\awmod.c
		___awmod       		CODE           	1BCCC	0000	176

C:\Program Files\Microchip\xc8\v3.00\pic\sources\c99\common\awmod.c estimated size: 176

C:\Program Files\Microchip\xc8\v3.00\pic\sources\c99\common\floorf.c
		_floorf        		CODE           	18CEC	0000	534

C:\Program Files\Microchip\xc8\v3.00\pic\sources\c99\common\floorf.c estimated size: 534

C:\Program Files\Microchip\xc8\v3.00\pic\sources\c99\common\fleq.c
		___fleq        		CODE           	1BED8	0000	172

C:\Program Files\Microchip\xc8\v3.00\pic\sources\c99\common\fleq.c estimated size: 172

C:\Program Files\Microchip\xc8\v3.00\pic\sources\c99\common\llmod.c
		___llmod       		CODE           	1C614	0000	138

C:\Program Files\Microchip\xc8\v3.00\pic\sources\c99\common\llmod.c estimated size: 138

C:\Program Files\Microchip\xc8\v3.00\pic\sources\c99\common\sprcmul.c
		___flmul       		CODE           	16980	0000	1064

C:\Program Files\Microchip\xc8\v3.00\pic\sources\c99\common\sprcmul.c estimated size: 1064

C:\Program Files\Microchip\xc8\v3.00\pic\sources\c99\common\Umul32.c
		___lmul        		CODE           	1CB72	0000	108

C:\Program Files\Microchip\xc8\v3.00\pic\sources\c99\common\Umul32.c estimated size: 108

mcc_generated_files/uart1.c
		_UART1_Write   		CODE           	1DDB0	0000	24
		_putch         		CODE           	1E038	0000	14
		_UART1_SetFramingErrorHandler		CODE           	1DFE4	0000	14
		_UART1_SetOverrunErrorHandler		CODE           	1DFD6	0000	14
		_UART1_Initialize		CODE           	1CE4C	0000	100
		_UART1_SetErrorHandler		CODE           	1DFF2	0000	14

mcc_generated_files/uart1.c estimated size: 180

C:\Program Files\Microchip\xc8\v3.00\pic\sources\c99\common\__lldiv.c
		___lldiv       		CODE           	1C02E	0000	166

C:\Program Files\Microchip\xc8\v3.00\pic\sources\c99\common\__lldiv.c estimated size: 166

C:\Program Files\Microchip\xc8\v3.00\pic\sources\c99\common\sprcdiv.c
		___fldiv       		CODE           	171CE	0000	914

C:\Program Files\Microchip\xc8\v3.00\pic\sources\c99\common\sprcdiv.c estimated size: 914

shared
		i2_printf      		CODE           	1DBFA	0000	40
		i2_vfpfcnvrt   		CODE           	10000	0000	4790
		i2_pad         		CODE           	1BB5E	0000	186
		i2_abs         		CODE           	1D95C	0000	52
		i2_stoa        		CODE           	19A0A	0000	426
		i2_floorf      		CODE           	18F02	0000	530
		i2_labs        		CODE           	1CF62	0000	86
		i2_read_prec_or_width		CODE           	1B606	0000	204
		i2_putch       		CODE           	1E0B0	0000	10
		i2___fleq      		CODE           	1BF84	0000	170
		i2_utoa        		CODE           	192EC	0000	470
		_FIFO          		MEDIUMCONST    	0000	0000	0
		_DLC_BYTES     		MEDIUMCONST    	FD96	0000	9
		i2_vfprintf    		CODE           	1CDE6	0000	102
		i2_xtoa        		CODE           	183B4	0000	618
		i2_atoa        		CODE           	14168	0000	3272
		i2___flneg     		CODE           	1D6AC	0000	56
		i2_strcpy      		CODE           	1D4A2	0000	60
		i2___awdiv     		CODE           	1B922	0000	194
		i2___fladd     		CODE           	164CA	0000	1206
		i2_ctoa        		CODE           	1B050	0000	216
		i2_dtoa        		CODE           	18128	0000	652
		i2___fldiv     		CODE           	17560	0000	912
		i2___fltol     		CODE           	1A88E	0000	262
		__initialization		CODE           	1C500	0000	132
		i2___flge      		CODE           	1A994	0000	260
		i2___lodiv     		CODE           	1AE84	0000	240
		i2___lmul      		CODE           	1CC48	0000	106
		i2___awmod     		CODE           	1BE2A	0000	174
		_seg_patterns  		MEDIUMCONST    	FD8C	0000	10
		i2___aodiv     		CODE           	19D3C	0000	390
		i2___flmul     		CODE           	16DA8	0000	1062
		_i2c1_fsmStateTable		MEDIUMCONST    	FD53	0000	57
		i2___lomod     		CODE           	1B2D0	0000	208
		i2___fpclassifyf		CODE           	1AB98	0000	254
		i2___flsub     		CODE           	1D358	0000	70
		i2_UART1_Write 		CODE           	1DEEE	0000	22
		LCD_create_custom_char@F23611		MEDIUMCONST    	FDA7	0000	8
		LCD_create_custom_char@F23613		MEDIUMCONST    	FD9F	0000	8
		LCD_create_custom_char@F23609		MEDIUMCONST    	FDAF	0000	8
		i2_efgtoa      		CODE           	12564	0000	3598
		i2___aomod     		CODE           	1A1A4	0000	354
		i2_GetDashboardData		CODE           	1DDF8	0000	24
		i2_fputc       		CODE           	1B6D2	0000	202
		i2_fputs       		CODE           	1D39E	0000	68
		i2_strlen      		CODE           	1D786	0000	54
		i2_otoa        		CODE           	194C2	0000	460
		i2_memcpy      		CODE           	1D102	0000	80
		i2_CAN1_OperationModeGet		CODE           	1E0BA	0000	10

shared estimated size: 22382

C:\Program Files\Microchip\xc8\v3.00\pic\sources\c99\common\nf_fputs.c
		_fputs         		CODE           	1D238	0000	72

C:\Program Files\Microchip\xc8\v3.00\pic\sources\c99\common\nf_fputs.c estimated size: 72

mcc_generated_files/mcc.c
		_PMD_Initialize		CODE           	1DE28	0000	22
		_OSCILLATOR_Initialize		CODE           	1DF7E	0000	18
		_SYSTEM_Initialize		CODE           	1DADA	0000	42

mcc_generated_files/mcc.c estimated size: 82

mcc_generated_files/tmr3.c
		_TMR3_ISR      		CODE           	1DF58	0000	20
		_TMR3_Initialize		CODE           	1D152	0000	78
		_TMR3_SetInterruptHandler		CODE           	1E000	0000	14
		_TMR3_StopTimer		CODE           	1E12E	0000	6
		_TMR3_DefaultInterruptHandler		CODE           	1E152	0000	2
		_TMR3_CallBack 		CODE           	1D990	0000	50
		_TMR3_WriteTimer		CODE           	1DB2E	0000	42
		_TMR3_StartTimer		CODE           	1E134	0000	6

mcc_generated_files/tmr3.c estimated size: 218

C:\Program Files\Microchip\xc8\v3.00\pic\sources\c99\common\lodiv.c
		___lodiv       		CODE           	1AD92	0000	242

C:\Program Files\Microchip\xc8\v3.00\pic\sources\c99\common\lodiv.c estimated size: 242

C:\Program Files\Microchip\xc8\v3.00\pic\sources\c99\common\vsprintf.c
		_vsprintf      		CODE           	1C472	0000	142

C:\Program Files\Microchip\xc8\v3.00\pic\sources\c99\common\vsprintf.c estimated size: 142

C:\Program Files\Microchip\xc8\v3.00\pic\sources\c99\common\aodiv.c
		___aodiv       		CODE           	19BB4	0000	392

C:\Program Files\Microchip\xc8\v3.00\pic\sources\c99\common\aodiv.c estimated size: 392

C:\Program Files\Microchip\xc8\v3.00\pic\sources\c99\common\strlen.c
		_strlen        		CODE           	1D554	0000	58

C:\Program Files\Microchip\xc8\v3.00\pic\sources\c99\common\strlen.c estimated size: 58

mcc_generated_files/tmr1.c
		_TMR1_Initialize		CODE           	1D1A0	0000	78
		_TMR1_SetInterruptHandler		CODE           	1E00E	0000	14
		_TMR1_DefaultInterruptHandler		CODE           	1E154	0000	2
		_TMR1_CallBack 		CODE           	1D9C2	0000	50
		_TMR1_WriteTimer		CODE           	1DB58	0000	42
		_TMR1_ISR      		CODE           	1D5C8	0000	58

mcc_generated_files/tmr1.c estimated size: 244

C:\Program Files\Microchip\xc8\v3.00\pic\sources\c99\common\strcpy.c
		_strcpy        		CODE           	1D464	0000	62

C:\Program Files\Microchip\xc8\v3.00\pic\sources\c99\common\strcpy.c estimated size: 62

C:\Program Files\Microchip\xc8\v3.00\pic\sources\c99\common\memset.c
		_memset        		CODE           	1D51A	0000	58

C:\Program Files\Microchip\xc8\v3.00\pic\sources\c99\common\memset.c estimated size: 58

C:\Program Files\Microchip\xc8\v3.00\pic\sources\c99\common\lwdiv.c
		___lwdiv       		CODE           	1CA1A	0000	118

C:\Program Files\Microchip\xc8\v3.00\pic\sources\c99\common\lwdiv.c estimated size: 118

C:\Program Files\Microchip\xc8\v3.00\pic\sources\c99\common\awdiv.c
		___awdiv       		CODE           	1B79C	0000	196

C:\Program Files\Microchip\xc8\v3.00\pic\sources\c99\common\awdiv.c estimated size: 196

C:\Program Files\Microchip\xc8\v3.00\pic\sources\c99\common\fltol.c
		___fltol       		CODE           	1A680	0000	264

C:\Program Files\Microchip\xc8\v3.00\pic\sources\c99\common\fltol.c estimated size: 264

C:\Program Files\Microchip\xc8\v3.00\pic\sources\c99\common\labs.c
		_labs          		CODE           	1CF0A	0000	88

C:\Program Files\Microchip\xc8\v3.00\pic\sources\c99\common\labs.c estimated size: 88

main.c
		_main          		CODE           	15AD8	0000	1338
		_ButtonHoldTimer		CODE           	1DDE0	0000	24
		_display_tson_state		CODE           	178F0	0000	730
		_RealTimeClockHandler		CODE           	1C928	0000	122
		_vcu_number    		CODE           	1C7AA	0000	128
		_ButtonPressHandler		CODE           	1AC96	0000	252

main.c estimated size: 2594

C:\Program Files\Microchip\xc8\v3.00\pic\sources\c99\common\doprnt.c
		_read_prec_or_width		CODE           	1B3A0	0000	206
		_vfpfcnvrt     		CODE           	112B6	0000	4782
		_efgtoa        		CODE           	13372	0000	3574
		_pad           		CODE           	1B9E4	0000	190
		_atoa          		CODE           	14E30	0000	3240
		_ctoa          		CODE           	1AF74	0000	220
		_dtoa          		CODE           	17E9A	0000	654
		_vfprintf      		CODE           	1CD80	0000	102
		_otoa          		CODE           	1968E	0000	456
		_stoa          		CODE           	19856	0000	436
		_utoa          		CODE           	19114	0000	472
		_xtoa          		CODE           	1861E	0000	616

C:\Program Files\Microchip\xc8\v3.00\pic\sources\c99\common\doprnt.c estimated size: 14948

C:\Program Files\Microchip\xc8\v3.00\pic\sources\c99\common\sprcadd.c
		___flsub       		CODE           	1D280	0000	72
		___fladd       		CODE           	16012	0000	1208

C:\Program Files\Microchip\xc8\v3.00\pic\sources\c99\common\sprcadd.c estimated size: 1280

power.c
		_power_sample_instant		CODE           	1CD1A	0000	102
		_power_sample_average		CODE           	1BC18	0000	180
		_power_get_average_kw		CODE           	19EC2	0000	382
		_power_get_bar 		CODE           	1BAA2	0000	188
		_power_get_instant_kw		CODE           	1D63C	0000	56

power.c estimated size: 908

LCD.c
		_LCD_set_cursor		CODE           	1D424	0000	64
		_LCD_clear     		CODE           	1DCAC	0000	32
		_LCD_print     		CODE           	1D674	0000	56
		_LCD_clear_row 		CODE           	1DCCC	0000	32
		_LCD_send_nibble_cmd		CODE           	1D3E2	0000	66
		_LCD_write_string		CODE           	1CBDE	0000	106
		_LCD_init      		CODE           	1C82A	0000	128
		_LCD_write_char		CODE           	1DF6C	0000	18
		_LCD_create_custom_char		CODE           	1A306	0000	316
		_LCD_send_byte 		CODE           	1DBAA	0000	40
		_I2C1_SetBuffer_4bitmode		CODE           	1BD7C	0000	174

LCD.c estimated size: 1032

